(dp0
Fnan
(dp1
S'BAGR'
p2
I1
sS'PVR'
p3
I1
sS'PLNL'
p4
I1
sS'ASJL'
p5
I1
sS'URBL'
p6
I1
sS'URYVR'
p7
I1
sS'URADL'
p8
I1
sS'URYDR'
p9
I1
sS'URYVL'
p10
I1
sS'PLNR'
p11
I1
sS'URYDL'
p12
I1
sS'URADR'
p13
I1
sS'ASJR'
p14
I1
sS'URBR'
p15
I1
sS'URAVR'
p16
I1
sS'AVG'
p17
I1
sS'BAGL'
p18
I1
sS'URAVL'
p19
I1
ssS'ADLL'
p20
(dp21
S'ASHL'
p22
I2
sS'AIBR'
p23
I1
sS'AVDR'
p24
I5
sS'ASER'
p25
I3
sS'RMGL'
p26
I1
sS'AVAR'
p27
I3
sS'AWBL'
p28
I2
sS'ALA'
p29
I2
sS'AVAL'
p30
I2
sS'AIAL'
p31
I6
sS'AVJR'
p32
I3
sS'AVJL'
p33
I1
sS'OLQVL'
p34
I2
sS'AVDL'
p35
I1
sS'RIPL'
p36
I1
sS'AIBL'
p37
I7
sS'ADLR'
p38
I1
sS'AVBL'
p39
I2
ssS'HSNL'
p40
(dp41
g22
I1
sS'SABVL'
p42
I2
sS'AVFL'
p43
I6
sS'AIZL'
p44
I2
sg24
I2
sS'AWBR'
p45
I2
sS'RIML'
p46
I2
sg28
I1
sS'MVULVA'
p47
I7
sg31
I1
sg33
I1
sS'ASJR'
p48
I1
sS'ASKL'
p49
I1
sS'AIZR'
p50
I1
sS'HSNR'
p51
I4
sS'RIFL'
p52
I3
sS'ASHR'
p53
I2
sS'VC5'
p54
I3
ssS'SIBDR'
p55
(dp56
S'AIML'
p57
I1
sS'RIBR'
p58
I1
sS'SIBVR'
p59
I1
ssS'CEPVR'
p60
(dp61
S'URAVR'
p62
I1
sS'RMDDR'
p63
I2
sS'AVEL'
p64
I5
sS'MVR04'
p65
I1
sS'IL1VR'
p66
I1
sS'RICR'
p67
I2
sS'IL2VR'
p68
I2
sS'RIPR'
p69
I1
sS'RICL'
p70
I2
sS'ASGR'
p71
I1
sS'RIH'
p72
I1
sS'OLQVR'
p73
I4
sS'SIAVR'
p74
I2
sS'OLLR'
p75
I7
sS'RIVL'
p76
I1
sS'RMHR'
p77
I2
ssS'PHCR'
p78
(dp79
S'LUAR'
p80
I1
sS'PVCR'
p81
I9
sS'PHCL'
p82
I2
sS'DVA'
p83
I8
sS'AVHR'
p84
I1
sS'DA9'
p85
I2
sS'VA12'
p86
I2
ssS'I4'
p87
(dp88
S'I5'
p89
I2
sS'I2R'
p90
I5
sS'I2L'
p91
I5
sS'M1'
p92
I2
ssS'VA8'
p93
(dp94
S'AVBR'
p95
I1
sS'MVR16'
p96
I6
sS'AS6'
p97
I1
sS'VD7'
p98
I5
sS'VD8'
p99
I6
sg27
I4
sS'VA8'
p100
I1
sS'DD4'
p101
I21
sg30
I10
sS'VA9'
p102
I1
sS'MVL15'
p103
I6
sS'VB6'
p104
I1
sS'MVR15'
p105
I6
sS'MVL16'
p106
I6
sS'VB9'
p107
I3
sS'VB8'
p108
I4
sS'PDER'
p109
I1
sg81
I2
ssS'AIYR'
p110
(dp111
S'AWAR'
p112
I1
sS'RIAR'
p113
I6
sS'HSNL'
p114
I1
sS'RIMR'
p115
I1
sg58
I2
sS'ADFR'
p116
I1
sg50
I8
sS'AIYL'
p117
I1
ssS'M2R'
p118
(dp119
S'I3'
p120
I3
sS'MI'
p121
I3
sS'M3R'
p122
I1
sS'I1R'
p123
I3
sS'M5'
p124
I1
sS'I1L'
p125
I3
sS'M3L'
p126
I1
ssS'CEPVL'
p127
(dp128
S'ADLL'
p129
I1
sS'OLLL'
p130
I4
sS'SIAVL'
p131
I1
sS'MVL03'
p132
I1
sg34
I7
sg67
I4
sg36
I1
sS'RMDDL'
p133
I4
sg70
I7
sS'RMHL'
p134
I1
sg72
I1
sS'IL1VL'
p135
I2
sS'AVER'
p136
I3
sS'URAVL'
p137
I2
ssS'DB1'
p138
(dp139
S'AS3'
p140
I1
sS'AS2'
p141
I1
sg23
I1
sS'VD2'
p142
I15
sS'VD1'
p143
I21
sg95
I3
sS'DD1'
p144
I10
sg83
I1
sS'AS1'
p145
I1
sS'RIS'
p146
I1
sS'VB3'
p147
I1
sS'MDR07'
p148
I1
sS'MDL08'
p149
I1
sS'MDL07'
p150
I1
sS'VB4'
p151
I1
sS'VD3'
p152
I1
sS'RID'
p153
I1
sS'DB2'
p154
I1
sS'DB4'
p155
I1
sS'MDR08'
p156
I1
ssS'OLLR'
p157
(dp158
S'SMDVL'
p159
I4
sg130
I2
sg64
I16
sS'CEPVR'
p160
I6
sS'RMER'
p161
I2
sg58
I10
sS'RMDVR'
p162
I3
sS'SMDVR'
p163
I3
sg63
I10
sS'IL2R'
p164
I1
sS'SMDDR'
p165
I1
sg66
I1
sS'RIGR'
p166
I1
sS'CEPDR'
p167
I1
sS'RMDL'
p168
I3
sS'IL1DR'
p169
I3
ssS'DB3'
p170
(dp171
g95
I1
sS'MDL14'
p172
I3
sS'VD5'
p173
I26
sS'VD4'
p174
I9
sS'AS5'
p175
I1
sS'AS4'
p176
I1
sS'DD3'
p177
I10
sS'DD2'
p178
I4
sS'VD6'
p179
I7
sS'MDL13'
p180
I4
sS'MDL12'
p181
I3
sS'MDL11'
p182
I3
sS'DA4'
p183
I1
sS'MDR14'
p184
I3
sS'MDR11'
p185
I3
sS'MDR13'
p186
I4
sS'MDR12'
p187
I3
sg154
I6
sg155
I1
sg39
I1
ssS'DB2'
p188
(dp189
g95
I1
sg152
I23
sg173
I1
sg174
I14
sS'MDL09'
p190
I3
sg178
I2
sg187
I3
sg181
I3
sg182
I3
sS'MDL10'
p191
I3
sS'VB1'
p192
I2
sg185
I3
sS'MDR10'
p193
I3
sS'DA3'
p194
I5
sS'DB1'
p195
I1
sS'DB3'
p196
I6
sS'MDR09'
p197
I3
ssS'DB5'
p198
(dp199
g95
I1
sS'MDL18'
p200
I2
sS'MDL17'
p201
I2
sS'MDL15'
p202
I2
sg27
I2
sS'MDR15'
p203
I2
sS'MDR17'
p204
I2
sS'MDR18'
p205
I2
sg39
I1
ssS'ADLR'
p206
(dp207
g95
I2
sg23
I10
sg129
I1
sS'AWCR'
p208
I3
sg24
I2
sg25
I1
sS'AIAR'
p209
I10
sg27
I2
sS'PVCL'
p210
I1
sg67
I1
sg70
I1
sg32
I1
sg35
I5
sg75
I1
sg53
I3
sg39
I1
ssS'odorsensory'
p211
(dp212
S'AWAR'
p213
I1
sS'AWCR'
p214
I1
sS'AWBR'
p215
I1
sS'AWBL'
p216
I1
sS'AWCL'
p217
I1
sS'AWAL'
p218
I1
ssS'DB6'
p219
(dp220
g95
I1
sS'MDL20'
p221
I2
sS'MDL19'
p222
I2
sg201
I2
sS'MDR20'
p223
I2
sg204
I2
sg30
I3
sS'MDR19'
p224
I2
sg39
I2
ssS'VB7'
p225
(dp226
g95
I2
sg105
I5
sg101
I2
sS'VB2'
p227
I2
sg103
I5
sg39
I2
ssS'SMBVR'
p228
(dp229
S'MVR06'
p230
I1
sg65
I1
sS'AVKR'
p231
I1
sS'MVR07'
p232
I1
sS'MVR01'
p233
I1
sS'SAAVL'
p234
I3
sS'MVR03'
p235
I1
sS'AVKL'
p236
I1
sS'RMEV'
p237
I3
sS'MVR02'
p238
I1
sS'SAADR'
p239
I4
ssS'URAVR'
p240
(dp241
g65
I2
sg161
I2
sg233
I2
sg237
I2
sg235
I2
sg69
I3
sS'RMDVL'
p242
I1
sg238
I2
sS'IL1R'
p243
I1
ssS'NSMR'
p244
(dp245
g122
I1
sg90
I6
sg89
I2
sS'I4'
p246
I3
sg123
I2
sg125
I2
sg126
I1
sg91
I6
sS'I6'
p247
I2
sg120
I2
ssS'ASKR'
p248
(dp249
g112
I1
sS'RIFR'
p250
I1
sg160
I1
sg209
I11
sS'AIMR'
p251
I1
sS'RMGR'
p252
I1
sg49
I1
sg53
I1
sS'PVQR'
p253
I4
ssS'RMFR'
p254
(dp255
g231
I3
sg236
I3
sg168
I2
ssS'AWCR'
p256
(dp257
g23
I4
sS'AIYR'
p258
I9
sg209
I1
sg71
I1
sS'AWCL'
p259
I5
sS'ASEL'
p260
I1
sg117
I4
ssS'AVAR'
p261
(dp262
S'PDEL'
p263
I1
sg81
I8
sS'VA2'
p264
I2
sg196
I1
sg210
I7
sS'DB5'
p265
I3
sg109
I1
sg86
I1
sS'DB6'
p266
I5
sS'VA11'
p267
I15
sg100
I16
sg115
I1
sS'ADER'
p268
I1
sS'VA10'
p269
I5
sS'URYVL'
p270
I1
sS'SABVR'
p271
I1
sg42
I6
sg30
I6
sg102
I6
sS'AS11'
p272
I6
sS'AS10'
p273
I2
sg136
I2
sS'VA3'
p274
I7
sS'VA6'
p275
I5
sS'VA7'
p276
I4
sS'SABD'
p277
I1
sS'VA5'
p278
I4
sg140
I2
sg141
I2
sg145
I3
sS'AS7'
p279
I8
sg97
I3
sg175
I2
sg176
I1
sS'AS9'
p280
I6
sS'AS8'
p281
I9
sS'URYDR'
p282
I1
sg183
I8
sS'DA5'
p283
I7
sS'DA6'
p284
I13
sS'DA7'
p285
I3
sS'DA1'
p286
I8
sS'DA2'
p287
I4
sg194
I5
sg46
I2
sS'DA8'
p288
I9
sg85
I2
sS'VD13'
p289
I2
sg80
I3
sg64
I2
sS'RIGL'
p290
I1
sg24
I2
sS'VA4'
p291
I5
sg35
I1
sg107
I4
sS'LUAL'
p292
I1
sg39
I1
ssS'RIS'
p293
(dp294
g23
I-1
sS'RMDR'
p295
I-4
sg231
I-4
sg168
I-2
sg163
I-1
sg46
I-2
sg159
I-1
sg236
I-1
sS'CEPVL'
p296
I-2
sg195
I-1
sg75
I-1
sg64
I-7
sg58
I-5
sS'URYVR'
p297
I-1
sS'RIBL'
p298
I-3
sg160
I-1
sg136
I-7
sg115
I-5
sg33
I-1
sg133
I-1
sg167
I-1
sS'SMDDL'
p299
I-1
sS'AVL'
p300
I-2
sg165
I-3
ssS'PDB'
p301
(dp302
g153
I2
sS'MVR21'
p303
I1
sg289
I2
sg272
I2
sS'MVL22'
p304
I1
ssS'RMDDR'
p305
(dp306
S'MDL03'
p307
I2
sS'MDL01'
p308
I1
sg239
I1
sg73
I1
sg162
I1
sS'MDR04'
p309
I1
sg238
I1
sg233
I1
sg242
I12
sS'URYDL'
p310
I1
sg165
I1
sS'MDL04'
p311
I1
sS'MDL02'
p312
I1
ssS'RICR'
p313
(dp314
g163
I1
sg159
I2
sS'ADAR'
p315
I1
sg27
I5
sS'SMBDR'
p316
I1
sg299
I4
sg30
I5
sg165
I3
sg236
I1
sg53
I2
ssS'AVAL'
p317
(dp318
S'FLPL'
p319
I1
sg33
I2
sg81
I11
sg210
I12
sg265
I2
sg267
I7
sg86
I2
sg266
I4
sg115
I3
sg102
I8
sg269
I6
sg27
I7
sS'PVPL'
p320
I1
sg271
I1
sg100
I19
sg297
I1
sg272
I4
sg273
I3
sg264
I5
sg274
I3
sS'VA1'
p321
I3
sg275
I10
sg276
I2
sg277
I4
sg278
I8
sg140
I3
sg141
I1
sg145
I3
sg279
I14
sg97
I1
sg175
I4
sg176
I1
sg280
I12
sg281
I9
sg183
I10
sg283
I8
sg284
I21
sg285
I4
sg286
I4
sg287
I4
sg194
I6
sg288
I4
sg85
I3
sg95
I1
sS'SDQR'
p322
I1
sS'AVHL'
p323
I1
sg310
I1
sg291
I3
sg35
I1
sg107
I5
sg292
I2
ssS'VA9'
p324
(dp325
g95
I1
sg108
I7
sg81
I1
sg98
I1
sS'VD9'
p326
I10
sS'MVR18'
p327
I5
sS'DVC'
p328
I1
sS'DVB'
p329
I1
sg30
I1
sg105
I5
sg103
I5
sS'DD5'
p330
I15
sS'MVL18'
p331
I5
sg107
I4
sg101
I3
sS'PVT'
p332
I1
ssS'AWCL'
p333
(dp334
g23
I1
sg208
I1
sS'RIAL'
p335
I3
sg209
I4
sg30
I1
sg31
I2
sg260
I1
sg37
I1
sg117
I10
ssS'AS11'
p336
(dp337
S'MDL22'
p338
I1
sS'MDL23'
p339
I1
sS'MDL21'
p340
I1
sS'MDL24'
p341
I1
sS'MDR22'
p342
I1
sS'MDR21'
p343
I1
sS'PDA'
p344
I1
sS'MDR24'
p345
I1
sS'PDB'
p346
I3
sg289
I2
sS'MDR23'
p347
I1
ssS'AS10'
p348
(dp349
g221
I2
sg222
I3
sg223
I2
sg27
I1
sg30
I1
sg224
I3
ssS'VA2'
p350
(dp351
g143
I3
sg142
I11
sg144
I13
sg232
I5
sg192
I2
sS'MVL10'
p352
I5
sg30
I5
sS'MVR10'
p353
I5
sS'MVL07'
p354
I5
sg274
I2
sg277
I3
ssS'ASKL'
p355
(dp356
S'PVQL'
p357
I5
sS'ASKR'
p358
I1
sg26
I1
sg57
I2
sg31
I11
sg37
I2
ssS'NSML'
p359
(dp360
g122
I1
sg90
I6
sg89
I2
sg246
I3
sg123
I2
sg125
I1
sg126
I1
sg91
I6
sg247
I2
sg120
I2
ssS'VA1'
p361
(dp362
g143
I2
sS'MVR08'
p363
I3
sg144
I9
sg232
I3
sg30
I3
sg354
I3
sg287
I2
sS'MVL08'
p364
I3
ssS'VA6'
p365
(dp366
S'MVR13'
p367
I5
sg173
I1
sg179
I2
sg177
I24
sS'MVR14'
p368
I5
sg27
I2
sS'MVL13'
p369
I5
sg30
I6
sS'MVL14'
p370
I5
sS'VB5'
p371
I2
ssS'VA7'
p372
(dp373
g367
I4
sg47
I4
sg98
I9
sg175
I1
sg177
I3
sg27
I4
sg369
I4
sg101
I12
sg147
I1
sg30
I2
sg105
I4
sg103
I4
sg106
I4
sg96
I4
ssS'VA4'
p374
(dp375
g141
I2
sS'MVR11'
p376
I6
sg174
I3
sS'MVR12'
p377
I6
sg178
I21
sg27
I3
sS'MVL11'
p378
I6
sg147
I2
sg283
I1
sg30
I1
sS'MVL12'
p379
I6
sg35
I1
sg277
I1
ssS'VA5'
p380
(dp381
g140
I2
sg376
I5
sg173
I2
sg368
I5
sg177
I13
sg178
I5
sg27
I3
sg378
I5
sg283
I2
sg30
I5
sg370
I5
ssS'CEPDL'
p382
(dp383
S'IL1DL'
p384
I4
sg310
I2
sg316
I1
sg130
I2
sS'URBL'
p385
I4
sg26
I4
sS'URADL'
p386
I2
sg67
I2
sg146
I1
sg242
I3
sg36
I2
sg70
I1
sS'SIADR'
p387
I1
sg298
I2
sg72
I1
sg136
I5
sg77
I4
sS'OLQDL'
p388
I7
ssS'URYVL'
p389
(dp390
g95
I1
sg290
I1
sg162
I2
sg59
I1
sg27
I1
sg146
I1
sg163
I4
sg133
I4
sg298
I2
sg72
I1
sg135
I1
sg136
I5
sg335
I1
ssS'PVQL'
p391
(dp392
g114
I2
sS'ASJL'
p393
I1
sg26
I1
sS'ADAL'
p394
I1
sg31
I3
sg49
I9
sg253
I2
ssS'FLPR'
p395
(dp396
g95
I1
sg23
I1
sg64
I4
sg268
I1
sg24
I2
sg32
I1
sg27
I5
sg192
I1
sg30
I12
sg319
I4
sg83
I1
sg136
I2
sg35
I11
sg210
I2
sg39
I5
ssS'AVJR'
p397
(dp398
g95
I1
sg81
I4
sg24
I3
sg253
I1
sg27
I1
sg42
I1
sg30
I1
sg33
I5
sg136
I3
sg35
I1
sg210
I3
sg39
I3
ssS'URYDR'
p399
(dp400
g64
I2
sg27
I1
sg58
I1
sg133
I3
sg299
I4
sg166
I1
sg136
I2
sg162
I5
ssS'IL2VR'
p401
(dp402
g113
I2
sg66
I6
sg161
I2
sS'URXR'
p403
I1
sg237
I3
sg69
I15
sS'RMEL'
p404
I3
sg72
I3
sg73
I1
sg62
I4
ssS'IL2VL'
p405
(dp406
S'BAGR'
p407
I1
sg137
I3
sg34
I1
sg161
I4
sS'IL2L'
p408
I1
sg237
I1
sg36
I11
sg404
I1
sg72
I2
sg135
I7
sg335
I1
ssS'URYDL'
p409
(dp410
g290
I1
sg63
I4
sg242
I6
sg299
I1
sg30
I1
sg165
I1
sg298
I1
sg136
I2
ssS'chemosensory'
p411
(dp412
S'ASIL'
p413
I1
sS'PHBL'
p414
I1
sS'ASKR'
p415
I1
sS'PHBR'
p416
I1
sS'ASER'
p417
I1
sS'IL2DL'
p418
I1
sS'PHAR'
p419
I1
sS'ASGL'
p420
I1
sS'IL2VR'
p421
I1
sS'ADFR'
p422
I1
sS'IL2VL'
p423
I1
sS'ADFL'
p424
I1
sS'IL2L'
p425
I1
sS'ASGR'
p426
I1
sS'IL2DR'
p427
I1
sS'IL2R'
p428
I1
sS'PHAL'
p429
I1
sS'ASEL'
p430
I1
sS'ASKL'
p431
I1
sS'ASIR'
p432
I1
ssS'FLPL'
p433
(dp434
g95
I5
sg23
I2
sg268
I2
sg24
I13
sS'FLPR'
p435
I3
sg83
I1
sg27
I17
sg30
I15
sg72
I1
sS'ADEL'
p436
I2
sg35
I7
sg37
I1
sg39
I4
ssS'AVJL'
p437
(dp438
g95
I4
sS'PVNR'
p439
I1
sg210
I2
sg81
I5
sg64
I1
sg24
I2
sg32
I4
sg250
I1
sg27
I1
sg323
I2
sS'PLMR'
p440
I2
sg30
I2
sg146
I2
sg35
I1
sg51
I1
sS'AVFR'
p441
I1
sg39
I1
ssS'URBR'
p442
(dp443
g95
I1
sg403
I6
sS'OLQDR'
p444
I1
sg295
I1
sg315
I1
sg168
I1
sg67
I1
sS'RMFL'
p445
I1
sg164
I1
sg73
I1
sg74
I2
sS'SMBDL'
p446
I1
sg243
I3
sg167
I1
ssS'RMDR'
p447
(dp448
g113
I7
sS'MVL05'
p449
I1
sg115
I2
sg307
I1
sg162
I1
sg146
I1
sS'MDL05'
p450
I1
sg132
I1
sS'MDR05'
p451
I1
sg236
I1
sg168
I1
sg133
I1
sg335
I3
ssS'CEPDR'
p452
(dp453
g444
I7
sg134
I4
sg316
I1
sg64
I6
sg162
I2
sg243
I1
sg58
I1
sg67
I3
sg146
I1
sS'SIADL'
p454
I1
sS'BDUR'
p455
I1
sg70
I4
sg252
I1
sS'URADR'
p456
I1
sg72
I1
sg133
I1
sS'URBR'
p457
I2
sg75
I8
sg77
I1
sg282
I1
sg169
I5
ssS'AVBR'
p458
(dp459
g83
I1
sg195
I3
sg196
I1
sg51
I1
sg265
I1
sg155
I1
sS'DB7'
p460
I1
sg266
I1
sg154
I1
sS'VB11'
p461
I1
sS'VB10'
p462
I1
sg144
I1
sg58
I1
sg27
I7
sg100
I1
sg30
I6
sg102
I2
sg298
I1
sg273
I1
sg153
I2
sg291
I1
sg140
I1
sg145
I1
sg279
I3
sg97
I2
sg175
I1
sg176
I1
sg283
I1
sS'VD10'
p463
I1
sg152
I1
sS'SIBVL'
p464
I1
sg147
I1
sg227
I1
sS'VB7'
p465
I2
sg104
I2
sg151
I1
sg107
I6
sg108
I3
sS'PVNL'
p466
I2
sg39
I4
ssS'PDA'
p467
(dp468
g439
I1
sg340
I2
sS'DD6'
p469
I1
sg272
I1
sg85
I2
sg289
I3
ssS'ASJL'
p470
(dp471
g48
I1
sg49
I4
sg51
I1
sg114
I1
sg357
I14
ssS'SABVL'
p472
(dp473
g27
I3
sg286
I2
sg287
I1
ssS'ALML'
p474
(dp475
S'CEPDL'
p476
I3
sS'PVR'
p477
I1
sg81
I1
sg64
I1
sS'BDUL'
p478
I6
sg26
I1
sg24
I1
sg63
I1
sS'AVM'
p479
I1
sg296
I2
sS'SDQL'
p480
I1
sg210
I2
ssS'PVQR'
p481
(dp482
g143
I1
sg112
I2
sg43
I1
sg332
I1
sg358
I8
sg25
I1
sg315
I1
sg209
I7
sg357
I2
sg250
I1
sg328
I1
sg300
I1
sg144
I1
sg51
I1
sg466
I1
sg441
I1
sg39
I1
ssS'AWBR'
p483
(dp484
g95
I2
sg113
I1
sS'RIR'
p485
I2
sg70
I1
sg116
I4
sg28
I1
sg71
I1
sg252
I1
sS'SMBVR'
p486
I1
sg50
I4
sg53
I2
sS'AUAR'
p487
I1
ssS'IL2L'
p488
(dp489
g64
I1
sg34
I8
sg161
I2
sg237
I2
sg70
I1
sS'IL1L'
p490
I1
sS'URXL'
p491
I2
sg72
I7
sg168
I3
sg436
I2
sg295
I1
sg26
I1
sg388
I5
ssS'RMHR'
p492
(dp493
g308
I2
sg161
I1
sg307
I2
sg450
I2
sS'MVL01'
p494
I2
sg252
I1
sg26
I1
ssS'AWBL'
p495
(dp496
S'AUAL'
p497
I1
sg23
I1
sg44
I9
sg26
I1
sg45
I1
sS'ADFL'
p498
I9
sg446
I1
sg335
I3
sg39
I1
ssS'IL2R'
p499
(dp500
g444
I2
sg457
I1
sg268
I1
sg66
I1
sg243
I1
sg168
I1
sg237
I1
sg404
I2
sg72
I6
sg73
I7
sg403
I1
sg252
I1
sg75
I1
ssS'ALMR'
p501
(dp502
g81
I3
sg160
I1
sg454
I1
sg455
I5
sg479
I1
sg133
I1
sg167
I1
ssS'ASJR'
p503
(dp504
g51
I1
sg253
I13
sg393
I1
sg358
I4
ssS'PQR'
p505
(dp506
g80
I1
sg24
I6
sg27
I11
sg320
I4
sg30
I8
sg35
I7
sS'AVG'
p507
I1
sg466
I1
ssS'DB4'
p508
(dp509
g95
I1
sg179
I13
sg177
I3
sS'MDL16'
p510
I2
sg172
I2
sg180
I2
sg227
I1
sS'MDR16'
p511
I2
sg186
I2
sg151
I1
sg195
I1
sg196
I1
sg184
I2
sg39
I1
ssS'PVDL'
p512
(dp513
g81
I6
sg27
I6
sg330
I1
sg30
I6
sg210
I1
sg463
I1
ssS'AVBL'
p514
(dp515
g83
I1
sg196
I1
sg265
I1
sg155
I1
sg460
I2
sg266
I2
sg64
I1
sS'AQR'
p516
I1
sg269
I1
sg58
I1
sg27
I7
sg30
I7
sS'VC3'
p517
I1
sg298
I1
sg273
I1
sg136
I2
sg153
I1
sg276
I1
sg140
I1
sg279
I2
sg97
I1
sg175
I1
sg176
I1
sg280
I1
sg264
I1
sg95
I4
sg439
I1
sg322
I1
sg461
I2
sg24
I2
sg464
I1
sg462
I2
sg300
I1
sg227
I4
sg192
I1
sg465
I2
sg104
I1
sg371
I1
sg151
I1
sg35
I1
sg107
I1
sg108
I7
ssS'VB5'
p518
(dp519
g367
I6
sg370
I6
sg179
I7
sg177
I27
sg368
I6
sg227
I1
sg369
I6
sg104
I1
sg151
I1
sg39
I1
ssS'ASER'
p520
(dp521
g112
I1
sg23
I10
sg258
I14
sS'AFDL'
p522
I1
sg209
I3
sg208
I1
sg31
I1
sS'AFDR'
p523
I2
sg37
I2
sg117
I2
sg259
I1
ssS'SAAVL'
p524
(dp525
S'ALNL'
p526
I1
sg115
I12
sg242
I1
sg30
I17
sS'RMFR'
p527
I2
sg165
I8
sg486
I3
sg46
I2
sg75
I1
sg37
I1
ssS'RMGL'
p528
(dp529
g23
I1
sg129
I1
sg295
I3
sS'SMBVL'
p530
I1
sg242
I3
sg491
I2
sg168
I1
sg526
I1
sg134
I3
sg64
I2
sg450
I2
sg30
I1
sg394
I1
sg449
I2
sg49
I1
sg153
I1
sg77
I1
sg476
I1
sg22
I2
sg95
I2
sg131
I1
sS'ALML'
p531
I1
sg464
I2
sg408
I1
sg28
I1
sg59
I1
ssS'SMDDL'
p532
(dp533
g149
I1
sS'MVL02'
p534
I1
sg113
I1
sg58
I1
sg311
I1
sg146
I1
sS'MDL06'
p535
I1
sg163
I2
sS'MDR06'
p536
I1
sg148
I1
sg309
I1
sg451
I1
sS'MDR02'
p537
I1
sg298
I1
sS'MVL04'
p538
I1
sg133
I1
sg335
I1
sS'MDR03'
p539
I1
ssS'M5'
p540
(dp541
g124
I4
sg89
I4
sS'M2R'
p542
I2
sg247
I1
sS'M2L'
p543
I2
sg92
I1
ssS'M4'
p544
(dp545
g124
I1
sS'NSMR'
p546
I1
sg120
I1
sg89
I13
sg542
I1
sg247
I3
sg543
I1
sS'M4'
p547
I6
sS'NSML'
p548
I1
ssS'RID'
p549
(dp550
g141
I-1
sg340
I-2
sg173
I-1
sg346
I-2
sg95
I-2
sg177
I-3
sg178
I-4
sg144
I-4
sg172
I-1
sg29
I-1
sg284
I-3
sg195
I-1
sg85
I-1
sg289
I-1
sg39
I-1
ssS'M1'
p551
(dp552
g90
I2
sg91
I2
sg120
I1
sg246
I1
ssS'chemosensory, odorsensory, nociceptive'
p553
(dp554
S'ADLL'
p555
I1
sS'ADLR'
p556
I1
ssS'ASEL'
p557
(dp558
g23
I2
sg258
I6
sg208
I1
sg113
I1
sg116
I1
sg31
I3
sg37
I7
sg117
I13
sg259
I4
ssS'SIADR'
p559
(dp560
g58
I1
ssS'BDUR'
p561
(dp562
g439
I-1
sg210
I-1
sg268
I-1
sg323
I-1
sg30
I-3
sg456
I-1
sS'ALMR'
p563
I-1
sg33
I-2
sg480
I-1
sg51
I-4
sg466
I-2
ssS'SMBDL'
p564
(dp565
g536
I3
sg231
I1
sg27
I1
sg309
I2
sS'SAAVR'
p566
I1
sg537
I2
sg236
I1
sg298
I1
sS'MDR01'
p567
I2
sS'SAADL'
p568
I1
sS'RMED'
p569
I3
sg539
I2
ssS'VA11'
p570
(dp571
g439
I2
sS'MVR20'
p572
I5
sg462
I1
sS'MVR19'
p573
I5
sg27
I7
sg469
I10
sS'MVL20'
p574
I5
sg30
I1
sS'MVL19'
p575
I5
sS'VD12'
p576
I4
ssS'VA12'
p577
(dp578
g81
I3
sg210
I2
sg267
I1
sg460
I4
sg461
I1
sg27
I1
sg469
I2
sg272
I2
sS'MVL21'
p579
I5
sg304
I5
sS'MVL23'
p580
I5
sg82
I1
sS'PHCR'
p581
I1
sg288
I3
sg85
I5
sg289
I11
sg576
I3
sS'MVR24'
p582
I5
sS'MVR22'
p583
I5
sS'MVR23'
p584
I5
sg303
I5
sg292
I2
ssS'ALNL'
p585
(dp586
g159
I1
sg316
I3
sg234
I3
ssS'HSNR'
p587
(dp588
g23
I1
sg114
I2
sg37
I1
sg250
I4
sg271
I1
sS'VC2'
p589
I3
sg517
I1
sg275
I1
sg277
I1
sg44
I1
sg175
I1
sg283
I1
sg284
I1
sg47
I6
sg33
I1
sg50
I1
sg22
I2
sg439
I2
sg43
I1
sg174
I2
sg24
I1
sg455
I1
sg300
I1
sg28
I1
sg252
I1
sg253
I1
ssS'RIMR'
p590
(dp591
g258
I1
sg295
I1
sg445
I1
sg236
I1
sg168
I3
sg37
I5
sg64
I3
sg315
I1
sg58
I1
sg27
I1
sg146
I2
sg150
I1
sg30
I5
sg527
I1
sg354
I1
sg449
I1
sg136
I2
sg234
I3
sg566
I3
sg33
I1
sg450
I1
sg95
I5
sg299
I2
sg165
I4
sg39
I2
ssS'PLNL'
p592
(dp593
g568
I5
sg530
I6
ssS'VB10'
p594
(dp595
g95
I1
sg576
I2
sg332
I1
sg572
I5
sg573
I5
sg469
I9
sg574
I5
sg236
I1
sg575
I5
sg210
I1
sS'VD11'
p596
I1
sg39
I2
ssS'DD3'
p597
(dp598
g178
I-2
sg172
I-5
sg180
I-6
sg182
I-5
sg101
I-1
sg184
I-5
sg185
I-5
sg186
I-6
ssS'DD2'
p599
(dp600
g190
I-4
sg152
I-1
sg174
I-3
sg177
I-2
sg144
I-1
sg187
I-4
sg181
I-4
sg182
I-5
sg185
I-5
sg194
I-1
sg197
I-4
ssS'ADAR'
p601
(dp602
g95
I5
sg23
I1
sg115
I5
sg64
I1
sS'RIVR'
p603
I1
sg70
I1
sg116
I1
sg69
I1
sg30
I1
sg159
I2
sg394
I1
sg33
I3
sg35
I2
sg253
I1
sg37
I1
sg53
I1
sg39
I1
ssS'PHAL'
p604
(dp605
g357
I2
sg43
I3
sg24
I1
sS'PHBR'
p606
I5
sg83
I2
sg323
I1
sS'PHAR'
p607
I7
sg84
I1
sS'PHBL'
p608
I5
sg507
I5
ssS'DD5'
p609
(dp610
g221
I-5
sg200
I-5
sg326
I-1
sg205
I-5
sg201
I-5
sg204
I-5
sg108
I-1
sg223
I-5
sg463
I-1
ssS'AIYL'
p611
(dp612
g258
I1
sg44
I13
sg208
I1
sg298
I4
sg259
I1
sg46
I1
sg51
I1
sg335
I7
sS'AWAL'
p613
I3
ssS'M2L'
p614
(dp615
g120
I3
sg121
I2
sg542
I1
sg123
I3
sg124
I1
sg125
I3
ssS'SMDDR'
p616
(dp617
g143
I1
sg149
I1
sg113
I1
sg63
I1
sg58
I1
sg311
I1
sg146
I1
sg535
I1
sg450
I1
sg536
I1
sg309
I1
sg238
I1
sg335
I2
ssS'ADAL'
p618
(dp619
g22
I1
sg95
I7
sg23
I2
sg64
I1
sg24
I2
sg435
I1
sg32
I5
sg315
I1
sg27
I2
sg163
I2
sg67
I1
sg357
I1
sg498
I1
sg70
I1
sg46
I3
sg35
I1
sg36
I1
sg37
I1
sg39
I4
ssS'DB7'
p620
(dp621
g338
I2
sg95
I1
sg340
I2
sg341
I2
sg222
I2
sg339
I2
sg342
I2
sg345
I2
sg347
I2
sg224
I2
sg343
I2
sg289
I2
sg39
I2
ssS'DD4'
p622
(dp623
g511
I-5
sg177
I-1
sg99
I-1
sg202
I-5
sg180
I-5
sg203
I-5
sg517
I-1
sg186
I-5
sg510
I-5
ssS'URXR'
p624
(dp625
g95
I2
sg113
I3
sg74
I1
sg69
I3
sg295
I1
sg166
I2
sg164
I1
sg252
I2
sg73
I1
sg136
I2
sg487
I4
sg39
I1
ssS'PLNR'
p626
(dp627
g239
I4
sg486
I6
ssS'PVDR'
p628
(dp629
g81
I10
sg27
I9
sS'PVDL'
p630
I1
sg83
I3
sg30
I6
sg102
I1
sg210
I13
ssS'RIH'
p631
(dp632
g160
I2
sg296
I2
sg36
I5
sg69
I3
sg73
I6
sg444
I3
sg58
I4
sg297
I1
sg298
I5
sg34
I1
sg487
I1
sg388
I2
sg476
I2
sg44
I4
sg161
I2
sg237
I1
sg319
I1
sg50
I4
sg167
I2
sg407
I1
sg113
I8
sg408
I2
sg116
I1
sg164
I1
sg335
I11
ssS'SABD'
p633
(dp634
g264
I4
sg274
I2
sg30
I4
sg291
I1
ssS'ALNR'
p635
(dp636
g268
I1
sg566
I2
sg446
I2
sg159
I1
sg165
I1
sg77
I1
ssS'AUAL'
p637
(dp638
S'AINR'
p639
I1
sg64
I3
sg24
I1
sg30
I3
sg28
I1
sg298
I9
sg335
I5
sg487
I1
ssS'SABVR'
p640
(dp641
g30
I1
sg27
I1
sg286
I3
ssS'putative_mechanosensory'
p642
(dp643
S'CEPDL'
p644
I1
sS'OLLL'
p645
I1
sS'CEPVR'
p646
I1
sS'CEPVL'
p647
I1
sS'OLLR'
p648
I1
sS'CEPDR'
p649
I1
ssS'RMER'
p650
(dp651
g308
I-5
sg307
I-5
sg494
I-5
sg237
I-1
ssS'AIAR'
p652
(dp653
g112
I2
sg23
I14
sg250
I2
sg25
I1
sg315
I1
sg208
I3
sg116
I1
sg71
I1
sg31
I1
sS'ASIR'
p654
I2
sg50
I1
sg38
I2
sg259
I1
ssS'RMEV'
p655
(dp656
g384
I-1
sg64
I-1
sg161
I-1
sg311
I-1
sg535
I-1
sg309
I-1
sg165
I-1
sg404
I-1
sg136
I-1
sg537
I-1
sg569
I-2
sg312
I-1
sg169
I-1
ssS'oxygen_sensor, putative_mechanosensory'
p657
(dp658
S'PQR'
p659
I1
ssS'mechanosensory'
p660
(dp661
S'IL1DL'
p662
I1
sS'PDEL'
p663
I1
sS'OLQVL'
p664
I1
sS'IL1R'
p665
I1
sS'PHCR'
p666
I1
sS'IL1L'
p667
I1
sS'OLQVR'
p668
I1
sS'PDER'
p669
I1
sS'IL1DR'
p670
I1
sS'ALNL'
p671
I1
sS'ADER'
p672
I1
sS'IL1VR'
p673
I1
sS'ADEL'
p674
I1
sS'PVM'
p675
I1
sS'OLQDL'
p676
I1
sS'OLQDR'
p677
I1
sS'FLPR'
p678
I1
sS'PHCL'
p679
I1
sS'FLPL'
p680
I1
sS'IL1VL'
p681
I1
sS'PLML'
p682
I1
sS'ALML'
p683
I1
sS'AVM'
p684
I1
sS'ALMR'
p685
I1
sS'ALNR'
p686
I1
sS'PLMR'
p687
I1
ssS'RMEL'
p688
(dp689
g290
I-1
sg233
I-3
sg237
I-1
sg235
I-3
sg539
I-3
sg567
I-3
ssS'AIAL'
p690
(dp691
g22
I1
sg208
I1
sS'ASIL'
p692
I2
sg44
I1
sg114
I1
sg25
I3
sg26
I1
sg209
I1
sS'ASGL'
p693
I1
sg57
I2
sg394
I1
sg52
I1
sg49
I3
sg37
I10
sg613
I1
ssS'RIML'
p694
(dp695
g95
I3
sg23
I1
sg159
I1
sg64
I2
sS'MVR05'
p696
I2
sg295
I1
sg239
I1
sg27
I2
sg146
I1
sg234
I3
sg566
I2
sg30
I1
sg527
I1
sg165
I5
sg298
I1
sg168
I1
sg136
I3
sg451
I2
sg117
I1
sg39
I2
ssS'DD6'
p697
(dp698
g338
I-5
sg339
I-5
sg340
I-5
sg222
I-5
sg341
I-5
sg345
I-5
sg224
I-5
sg343
I-5
sg342
I-5
sg347
I-5
ssS'RMED'
p699
(dp700
g65
I-2
sg58
I-1
sg237
I-2
sg36
I-1
sg534
I-2
sg69
I-1
sS'MVL06'
p701
I-2
sg298
I-1
sg538
I-2
sg135
I-1
sg238
I-2
ssS'VB9'
p702
(dp703
g95
I6
sg108
I4
sS'MVR17'
p704
I6
sg572
I6
sg27
I4
sg100
I3
sg330
I8
sg329
I1
sg30
I5
sg102
I4
sS'MVL17'
p705
I6
sg574
I6
sg210
I2
sg463
I5
sg39
I1
ssS'AUAR'
p706
(dp707
g497
I1
sg113
I6
sg258
I1
sg45
I1
sg58
I13
sg27
I1
sg136
I4
sg403
I1
sS'AINL'
p708
I1
ssS'VD1'
p709
(dp710
g142
I-7
sg363
I-3
sg290
I-2
sg696
I-3
sg144
I-5
sg328
I-5
sS'VC1'
p711
I-1
sg165
I-1
sg449
I-3
sg264
I-1
sg52
I-1
sg364
I-3
sg321
I-2
ssS'VD3'
p712
(dp713
g377
I-5
sg142
I-2
sg174
I-1
sg320
I-1
sg227
I-2
sg379
I-6
sg274
I-2
sS'MVL09'
p714
I-5
sS'MVR09'
p715
I-5
ssS'VD2'
p716
(dp717
g143
I-7
sg145
I-1
sg353
I-5
sg352
I-5
sg144
I-3
sg232
I-5
sg152
I-2
sg227
I-3
sg354
I-5
sg264
I-9
ssS'VD5'
p718
(dp719
g174
I-1
sg179
I-2
sg368
I-13
sg27
I-1
sS'PVPR'
p720
I-1
sg370
I-13
sg151
I-2
sg278
I-2
ssS'VD4'
p721
(dp722
g378
I-6
sg152
I-1
sg173
I-1
sg377
I-6
sg178
I-2
sg376
I-6
sg720
I-1
sg379
I-6
ssS'AINR'
p723
(dp724
g407
I3
sg497
I1
sg25
I1
sg522
I4
sg523
I1
sg693
I1
sg298
I2
sg31
I2
sg260
I1
sg708
I2
sg153
I1
sg37
I2
sg487
I1
ssS'VD6'
p725
(dp726
g367
I-5
sg173
I-2
sg96
I-5
sg98
I-1
sg368
I-5
sg369
I-5
sg30
I-1
sg370
I-5
sg371
I-2
sg106
I-5
sg275
I-1
ssS'VD9'
p727
(dp728
g704
I-7
sg327
I-7
sg463
I-5
sg705
I-7
sg331
I-7
sg109
I-1
ssS'VD8'
p729
(dp730
g100
I-5
sg103
I-12
sg105
I-12
sg101
I-2
ssS'SAADR'
p731
(dp732
g115
I5
sg23
I1
sg130
I1
sg63
I1
sg26
I1
sg27
I3
sg445
I1
sg46
I4
ssS'RIFR'
p733
(dp734
g51
I1
sg95
I17
sg43
I1
sg81
I1
sg115
I4
sg32
I2
sg210
I1
sg323
I1
sg720
I4
sg69
I1
sg33
I1
sg507
I1
sg53
I2
sg39
I1
ssS'AVHL'
p735
(dp736
g143
I1
sg95
I1
sg43
I3
sg486
I2
sg115
I1
sg357
I1
sg606
I1
sg485
I3
sg45
I1
sg316
I1
sg116
I3
sg720
I2
sg84
I2
sg33
I3
sg35
I1
sg253
I2
sg441
I5
sg39
I1
ssS'ADFR'
p737
(dp738
g113
I16
sg258
I1
sg485
I3
sg315
I2
sg209
I1
sg45
I1
sg316
I1
sg720
I1
sg486
I2
sg403
I1
sg166
I3
sg50
I8
sg53
I1
sg487
I4
ssS'AVL'
p739
(dp740
g353
I-5
sg271
I-3
sg64
I-1
sS'PVWL'
p741
I-1
sg144
I-1
sg352
I-5
sg469
I-2
sg328
I-9
sg329
I-1
sg720
I-1
sg42
I-4
sg287
I-1
sg51
I-1
sS'PVM'
p742
I-1
sg441
I-1
sg277
I-5
sg576
I-4
ssS'AVM'
p743
(dp744
g95
I6
sg477
I3
sg81
I5
sg268
I1
sg531
I1
sg32
I1
sg455
I2
sg478
I3
sg286
I1
sg563
I1
sg464
I1
sg321
I2
sg35
I2
sg153
I1
sg210
I4
sg466
I1
sg39
I6
ssS'AVHR'
p745
(dp746
g95
I1
sg129
I1
sg290
I1
sg24
I1
sg32
I4
sg516
I2
sg485
I4
sg323
I2
sg320
I3
sg441
I2
sg530
I1
sg43
I5
sg446
I1
sg466
I1
sg38
I2
sg39
I2
ssS'SAADL'
p747
(dp748
g115
I6
sg30
I6
sg446
I1
sg252
I1
sg46
I3
sg37
I1
ssS'SIBVR'
p749
(dp750
S'SIBDR'
p751
I1
sg58
I1
sg134
I1
sg298
I1
ssS'AINL'
p752
(dp753
g58
I2
sg639
I2
sg523
I5
sg71
I2
sg298
I1
sg260
I3
sg436
I1
sS'BAGL'
p754
I3
sg487
I2
ssS'PVWR'
p755
(dp756
g332
I1
sg27
I1
sg81
I2
sg86
I1
sg24
I1
ssS'AVG'
p757
(dp758
g95
I2
sg439
I1
sg43
I1
sg720
I1
sg332
I1
sg64
I1
sg24
I1
sg253
I1
sg27
I3
sg250
I1
sg300
I1
sS'PHAL'
p759
I2
sg33
I1
sg136
I1
sg52
I1
sg210
I1
sg288
I1
sg267
I1
sg39
I1
ssS'PVNL'
p760
(dp761
g95
I3
sg439
I5
sg210
I1
sg714
I3
sg332
I1
sg64
I1
sg24
I3
sg32
I5
sg144
I2
sg741
I1
sS'PQR'
p762
I1
sg455
I2
sg300
I2
sg478
I1
sg30
I2
sg33
I5
sg35
I3
sg507
I1
sg52
I1
sg441
I1
sg253
I1
ssS'PLMR'
p763
(dp764
g80
I1
sg263
I2
sg97
I1
sg24
I4
sg83
I5
sg27
I1
sg210
I2
sg30
I4
sg477
I2
sg35
I1
sg51
I1
sg109
I3
sg81
I1
ssS'SIBDL'
p765
(dp766
g464
I1
sg298
I1
ssS'IL1DL'
p767
(dp768
g477
I1
sg130
I1
sg63
I1
sg308
I1
sg312
I1
sg311
I2
sg237
I1
sg36
I2
sg242
I4
sg310
I1
sg490
I1
sg72
I1
sg169
I1
ssS'RIBR'
p769
(dp770
g751
I1
sg316
I1
sg159
I2
sg73
I1
sg37
I1
sg444
I2
sg332
I1
sg64
I3
sg58
I1
sg27
I2
sg387
I1
sg298
I3
sg72
I1
sg136
I1
sg166
I2
sg50
I1
sg95
I1
sg113
I2
sg299
I2
sg165
I1
sg59
I1
sg74
I1
sg754
I1
sg39
I1
ssS'OLLL'
p771
(dp772
g476
I3
sg310
I1
sg290
I1
sg384
I1
sg296
I4
sg299
I3
sg163
I4
sg133
I7
sg242
I1
sg165
I4
sg404
I2
sg298
I8
sg135
I2
sg136
I21
sg75
I2
sg168
I2
ssS'PHCL'
p773
(dp774
S'PLML'
p775
I1
sg83
I6
sg30
I1
sg86
I3
sg581
I1
sg210
I2
sg85
I8
sg292
I1
ssS'RIR'
p776
(dp777
g407
I2
sg497
I1
sg113
I1
sg44
I3
sg114
I1
sg290
I1
sg83
I2
sg403
I1
sg45
I1
sg320
I1
sg491
I5
sg523
I1
sg50
I5
sg335
I5
sg754
I1
ssS'IL1R'
p778
(dp779
g134
I1
sg64
I1
sg63
I2
sg66
I1
sg403
I2
sg162
I4
sg233
I3
sg235
I3
sg133
I3
sg242
I1
sg404
I2
sg539
I3
sg567
I3
sg168
I4
sg136
I1
sg295
I2
sg169
I2
ssS'IL1VL'
p780
(dp781
g66
I1
sg270
I1
sg36
I4
sg534
I4
sg494
I5
sg490
I2
sg133
I5
sg569
I1
ssS'DVA'
p782
(dp783
g263
I-3
sg81
I-1
sg485
I-3
sg316
I-2
sg446
I-3
sg195
I-1
sg196
I-2
sg154
I-1
sg265
I-1
sg155
I-1
sg460
I-1
sg266
I-2
sg210
I-4
sg64
I-9
sg516
I-4
sg27
I-1
sg30
I-3
sg86
I-1
sg136
I-5
sg277
I-1
sg497
I-1
sg44
I-3
sg115
I-1
sg234
I-1
sg566
I-1
sg264
I-1
sg477
I-5
sg487
I-1
sg95
I-1
sg113
I-1
sg461
I-2
sg239
I-1
sg530
I-3
sg192
I-1
sg486
I-2
sg335
I-1
sg39
I-2
ssS'SMBDR'
p784
(dp785
g526
I1
sg307
I1
sg231
I2
sg58
I1
sg311
I1
sg309
I1
sg234
I3
sg30
I1
sg236
I1
sg535
I2
sg569
I4
sg312
I1
sg156
I1
ssS'DVC'
p786
(dp787
g143
I-5
sg720
I-13
sg23
I-5
sg332
I-1
sg290
I-5
sg102
I-1
sg231
I-1
sg58
I-1
sg27
I-7
sg445
I-2
sg320
I-2
sg300
I-9
sg30
I-5
sg527
I-4
sg236
I-2
sg298
I-1
sg166
I-5
sg37
I-2
sg463
I-4
sg39
I-1
ssS'DVB'
p788
(dp789
g82
I-1
sg280
I-7
sg469
I-3
sg328
I-3
sg300
I-6
sg102
I-1
sg320
I-1
sS'MANAL'
p790
I-5
sg107
I-1
sg288
I-2
sg344
I-1
ssS'RMDDL'
p791
(dp792
g34
I1
sg168
I1
sg162
I7
sg299
I1
sg233
I1
sg242
I1
sg537
I1
sg539
I1
sg567
I1
sg309
I1
sg156
I2
ssS'SIADL'
p793
(dp794
g298
I1
ssS'PDEL'
p795
(dp796
g477
I2
sg81
I1
sg596
I1
sg83
I24
sg102
I1
sg236
I6
sg742
I3
sg109
I4
ssS'IL1L'
p797
(dp798
g384
I2
sg307
I3
sg132
I3
sg295
I3
sg161
I1
sg135
I1
sg162
I2
sg450
I4
sg133
I5
sg242
I4
sg494
I3
sg308
I3
sg168
I1
sg136
I2
ssS'RIVR'
p799
(dp800
g163
I-4
sg23
I-1
sg322
I-2
sg131
I-2
sg65
I-1
sg76
I-2
sg230
I-1
sg449
I-1
sg162
I-1
sg113
I-1
sg237
I-1
sg299
I-2
sg568
I-2
sg295
I-1
sg133
I-1
sg701
I-1
sg364
I-1
sg335
I-2
ssS'I1R'
p801
(dp802
g69
I1
sg125
I1
sg120
I1
sg89
I1
sg36
I1
ssS'IL1DR'
p803
(dp804
g384
I1
sg243
I1
sg162
I5
sg237
I1
sg69
I5
sg537
I3
sg567
I4
sg75
I1
ssS'VB4'
p805
(dp806
g95
I1
sg376
I5
sg368
I5
sg177
I16
sg178
I6
sg378
I5
sg370
I5
sg371
I1
sg195
I1
sg155
I1
sg39
I1
ssS'OLQDR'
p807
(dp808
g162
I1
sg58
I2
sg67
I1
sg133
I3
sg70
I1
sg72
I1
sg59
I2
sg166
I1
sg457
I1
sg77
I1
sg167
I2
ssS'PVR'
p809
(dp810
g384
I1
sg263
I1
sg81
I1
sg33
I3
sg83
I3
sg36
I3
sg69
I3
sg236
I1
sg196
I1
sg154
I1
sg109
I1
sg169
I1
sg394
I1
sg32
I2
sg277
I1
sg386
I1
sg97
I1
sg66
I1
sg135
I1
sg85
I1
sg80
I1
sg95
I4
sg531
I1
sg440
I2
sg292
I1
sg39
I4
ssS'PVT'
p811
(dp812
g237
I1
sg23
I5
sg290
I2
sg231
I7
sg58
I1
sg445
I2
sg328
I2
sg316
I1
sg300
I2
sg527
I3
sg236
I9
sg320
I1
sg72
I1
sg166
I3
sg37
I3
sg298
I1
ssS'AVEL'
p813
(dp814
g145
I1
sg142
I1
sg81
I1
sg115
I3
sg42
I7
sg162
I1
sg27
I7
sg152
I1
sg237
I1
sg271
I3
sg183
I1
sg46
I2
sg30
I12
sg286
I5
sg287
I1
sg194
I3
sg136
I1
sg274
I3
sg321
I5
sg277
I6
sg332
I1
ssS'I1L'
p815
(dp816
g69
I1
sg120
I1
sg36
I1
sg89
I1
sg123
I1
ssS'IL2DL'
p817
(dp818
g497
I1
sg384
I7
sg161
I3
sg386
I3
sg36
I10
sg404
I4
sg298
I1
sg388
I2
ssS'ASGL'
p819
(dp820
g44
I1
sg37
I3
sg31
I9
sg639
I2
sg49
I1
ssS'AIMR'
p821
(dp822
g444
I1
sg439
I1
sg43
I1
sg114
I1
sg24
I1
sg358
I3
sg209
I5
sg250
I1
sg71
I2
sg252
I1
sg48
I2
sg51
I2
sg441
I1
ssS'AIML'
p823
(dp824
g95
I2
sg43
I4
sg24
I1
sg531
I1
sg530
I1
sg751
I1
sg33
I1
sg693
I2
sg323
I2
sg357
I1
sg84
I1
sg31
I5
sg35
I1
sg136
I1
sg49
I2
sg52
I1
sg441
I1
ssS'ASGR'
p825
(dp826
g708
I1
sg23
I2
sg209
I10
sg50
I1
sg258
I1
ssS'IL2DR'
p827
(dp828
g161
I2
sg67
I1
sg237
I1
sg69
I11
sg404
I2
sg456
I3
sg167
I1
sg569
I1
sg169
I7
ssS'OLQVL'
p829
(dp830
g129
I1
sg290
I1
sg385
I1
sg296
I1
sg162
I4
sg36
I1
sS'IL2VL'
p831
I1
sg70
I1
sg298
I1
sg72
I1
sg135
I1
sg133
I1
sS'SIBDL'
p832
I3
ssS'AVER'
p833
(dp834
g162
I1
sg242
I1
sg196
I1
sg64
I1
sg27
I16
sg271
I3
sg42
I3
sg30
I7
sg264
I1
sg274
I2
sg321
I1
sg277
I2
sg278
I1
sg140
I1
sg141
I2
sg145
I3
sg115
I2
sg237
I1
sg286
I5
sg287
I3
sg194
I1
sg46
I3
sg24
I1
sg291
I1
ssS'RIFL'
p835
(dp836
g143
I1
sg95
I1
sg531
I2
sg32
I2
sg320
I3
sg84
I1
sg46
I4
sg507
I1
sg39
I10
ssS'PVM'
p837
(dp838
g263
I8
sg83
I3
sg300
I1
sg479
I1
sg477
I1
sg236
I11
sg210
I2
sg109
I9
ssS'OLQDL'
p839
(dp840
g476
I1
sg290
I1
sg63
I4
sg385
I1
sg464
I3
sg67
I1
sg242
I1
sg298
I2
ssS'AS3'
p841
(dp842
g190
I3
sg152
I15
sg142
I1
sg144
I1
sg27
I1
sg191
I3
sg30
I2
sg193
I3
sg287
I1
sg194
I1
sg197
I3
sg278
I2
ssS'AS2'
p843
(dp844
g149
I2
sg142
I10
sg144
I1
sg150
I3
sg148
I3
sg156
I3
sg287
I1
sg195
I1
sg291
I2
ssS'AS1'
p845
(dp846
g143
I5
sg149
I3
sg142
I1
sg27
I2
sg450
I3
sg30
I3
sg451
I3
sg286
I2
sg274
I1
sg156
I4
ssS'URADL'
p847
(dp848
g384
I2
sg312
I2
sg307
I2
sg311
I2
sg36
I3
sg404
I1
ssS'AS7'
p849
(dp850
g95
I2
sg180
I2
sg27
I5
sg30
I6
sg511
I3
sg186
I2
sg510
I3
sg39
I2
ssS'AS6'
p851
(dp852
g95
I1
sg179
I13
sg184
I2
sg180
I3
sg172
I2
sg27
I1
sg100
I1
sg283
I2
sg30
I1
sg186
I3
ssS'AS5'
p853
(dp854
g173
I9
sg178
I1
sg172
I3
sg27
I1
sg182
I2
sg184
I3
sg30
I1
sg185
I2
sg276
I1
ssS'AS4'
p855
(dp856
g174
I11
sg175
I1
sg194
I1
sg181
I2
sg182
I2
sg185
I3
sg187
I2
ssS'AS9'
p857
(dp858
g221
I3
sg201
I2
sg27
I2
sg204
I2
sg329
I7
sg30
I4
sg223
I3
ssS'AS8'
p859
(dp860
g200
I3
sg202
I2
sg27
I3
sg203
I2
sg30
I4
sg205
I3
ssS'SMBVL'
p861
(dp862
g534
I1
sS'PLNL'
p863
I1
sg237
I5
sg566
I2
sg132
I1
sg494
I1
sg568
I3
sg538
I1
sg449
I1
sg701
I1
sg364
I1
ssS'PVNR'
p864
(dp865
g179
I1
sg210
I1
sg51
I2
sg332
I2
sg64
I3
sg177
I1
sg369
I2
sg30
I2
sg589
I1
sg517
I1
sg32
I1
sg33
I4
sg576
I1
sg95
I2
sg98
I1
sg24
I1
sg741
I2
sg455
I2
sg300
I2
sg478
I1
sg762
I2
sg379
I1
sg466
I1
sg39
I1
ssS'SMDVR'
p866
(dp867
g113
I5
sg232
I1
sg162
I1
sg299
I2
sg534
I1
sg132
I1
sg192
I1
sg159
I1
sg298
I2
sg538
I1
sg603
I3
sg133
I1
sg335
I7
ssS'PLML'
p868
(dp869
g82
I1
sg210
I1
sg114
I1
sg292
I1
ssS'URXL'
p870
(dp871
g22
I1
sg497
I5
sg290
I3
sg64
I4
sg32
I1
sg26
I3
sg70
I1
sg335
I8
sg39
I1
ssS'LUAR'
p872
(dp873
g477
I2
sg81
I3
sg24
I3
sg32
I1
sg741
I1
sg27
I7
sg762
I1
sg30
I3
sg35
I1
sg440
I1
ssS'URADR'
p874
(dp875
g161
I1
sg162
I1
sg282
I1
sg69
I3
sg537
I2
sg539
I3
sg567
I3
sg569
I1
sg169
I1
ssS'VA3'
p876
(dp877
g377
I5
sg145
I1
sg142
I3
sg715
I5
sg178
I11
sg144
I18
sg27
I2
sg152
I3
sg352
I5
sg30
I1
sg379
I5
sg291
I1
sg353
I5
sg714
I5
sg277
I2
ssS'URYVR'
p878
(dp879
g751
I1
sg113
I1
sg63
I6
sg64
I6
sg66
I1
sg58
I1
sg242
I4
sg30
I2
sg159
I3
sg464
I1
sg166
I1
ssS'RIPL'
p880
(dp881
g444
I1
sg569
I1
sg388
I1
ssS'VD11'
p882
(dp883
g572
I-6
sg462
I-1
sg573
I-6
sg27
I-2
sg574
I-6
sg575
I-6
sg267
I-1
ssS'VD10'
p884
(dp885
g95
I-1
sg704
I-6
sg572
I-6
sg326
I-5
sg328
I-4
sg330
I-2
sg705
I-6
sg574
I-6
sg107
I-2
ssS'VD13'
p886
(dp887
g582
I-6
sg580
I-6
sg583
I-6
sg81
I-1
sg303
I-6
sg27
I-2
sg320
I-2
sg579
I-6
sg304
I-6
sg210
I-1
sg86
I-1
sg584
I-6
ssS'VD12'
p888
(dp889
g583
I-3
sg461
I-1
sg462
I-1
sg573
I-3
sg575
I-3
sg579
I-3
sg267
I-3
sg86
I-2
ssS'BAGR'
p890
(dp891
g290
I6
sg64
I2
sg485
I1
sg30
I1
sg298
I4
sg335
I5
sg117
I1
sg754
I1
ssS'AVFL'
p892
(dp893
g95
I2
sg114
I1
sg357
I1
sg378
I1
sg32
I1
sg379
I1
sg253
I2
sg323
I4
sg109
I1
sg300
I1
sg192
I1
sg84
I7
sg33
I1
sg507
I1
sg466
I2
sg441
I30
sg39
I1
ssS'SDQR'
p894
(dp895
g95
I4
sg129
I1
sg464
I1
sg67
I1
sg603
I2
sg83
I3
sg30
I3
sg134
I2
sg76
I2
sg480
I1
sg37
I2
sg77
I1
sg39
I7
ssS'VD7'
p896
(dp897
g47
I-5
sg96
I-5
sg105
I-5
sg179
I-1
sg102
I-1
sg103
I-5
sg106
I-5
ssS'RIGL'
p898
(dp899
g23
I3
sg130
I1
sg34
I1
sg231
I2
sg328
I1
sg270
I1
sg236
I1
sg526
I1
sg64
I1
sg516
I2
sg485
I2
sg445
I1
sg298
I2
sg136
I1
sg77
I3
sg388
I1
sg143
I2
sg310
I1
sg404
I1
sg50
I1
sg407
I2
sg227
I1
sg166
I3
ssS'AFDL'
p900
(dp901
g37
I1
sg117
I7
sg639
I1
sg523
I1
ssS'I2R'
p902
(dp903
g125
I1
sg92
I3
sg123
I1
ssS'PVWL'
p904
(dp905
S'PVWR'
p906
I1
sg332
I2
sg81
I2
sg86
I1
sg33
I1
ssS'RMHL'
p907
(dp908
g295
I1
sg26
I3
sg59
I1
sg233
I2
sg539
I3
sg567
I2
ssS'ALA'
p909
(dp910
g64
I2
sg295
I1
sg136
I1
sg30
I1
sg436
I1
sg153
I1
ssS'VB3'
p911
(dp912
g95
I1
sg376
I6
sg377
I6
sg178
I37
sg368
I6
sg378
I6
sg227
I1
sg379
I6
sg370
I6
sg195
I1
sg276
I1
sg291
I1
ssS'BDUL'
p913
(dp914
g439
I-2
sg114
I-1
sg32
I-1
sg386
I-1
sg323
I-1
sg568
I-1
sg436
I-3
sg466
I-2
ssS'VB1'
p915
(dp916
g143
I3
sg23
I1
sg321
I3
sg363
I1
sg144
I1
sg232
I1
sg83
I1
sg445
I2
sg163
I1
sg227
I4
sg142
I1
sg236
I4
sg354
I1
sg274
I1
sg46
I2
sg568
I9
sg364
I1
sg154
I2
sg239
I2
sg277
I1
sg39
I1
ssS'SMDVL'
p917
(dp918
g113
I8
sg477
I1
sg63
I1
sg65
I1
sg76
I2
sg230
I1
sg58
I2
sg146
I1
sg238
I1
sg163
I1
sg132
I1
sg242
I1
sg165
I4
sg701
I1
sg235
I1
sg335
I3
ssS'I2L'
p919
(dp920
g125
I1
sg92
I3
sg123
I1
ssS'RMFL'
p921
(dp922
g332
I1
sg295
I3
sg231
I4
sg233
I1
sg235
I1
sg236
I4
sg539
I1
sg457
I1
sg166
I1
sg252
I1
ssS'RICL'
p923
(dp924
g22
I2
sg165
I3
sg115
I3
sg45
I1
sg315
I1
sg27
I6
sg299
I3
sg163
I1
sg30
I5
sg527
I1
sg236
I1
sg603
I1
sg46
I1
sg446
I2
sg231
I2
ssS'AFDR'
p925
(dp926
g522
I1
sg23
I1
sg258
I13
sg25
I1
ssS'RIGR'
p927
(dp928
g444
I1
sg134
I4
sg290
I3
sg516
I1
sg231
I2
sg58
I2
sg485
I1
sg282
I1
sg297
I1
sg236
I4
sg73
I1
sg136
I2
sg75
I1
sg37
I3
sg754
I1
sS'ALNR'
p929
I1
ssS'SDQL'
p930
(dp931
g23
I1
sg322
I1
sg64
I1
sg531
I1
sg67
I1
sg27
I3
sg146
I3
sg445
I1
sg30
I1
sg319
I1
ssS'VB8'
p932
(dp933
g95
I3
sg704
I5
sg572
I5
sg326
I10
sg327
I5
sg330
I30
sg100
I3
sg102
I10
sg705
I5
sg574
I5
sg331
I5
sg107
I6
sg463
I1
sg39
I7
ssS'oxygen_sensor'
p934
(dp935
S'URXR'
p936
I1
sS'URXL'
p937
I1
sS'AQR'
p938
I1
ssS'AVFR'
p939
(dp940
g95
I5
sg43
I24
sg393
I1
sg357
I1
sg32
I1
sg368
I2
sg323
I4
sg84
I2
sS'VC4'
p941
I1
sg370
I2
sg33
I1
sg49
I1
sg51
I1
sg596
I1
sg39
I1
ssS'BAGL'
p942
(dp943
g407
I2
sg113
I5
sg290
I1
sg64
I1
sg485
I1
sg58
I7
sg27
I1
sg166
I5
sg298
I1
sg136
I4
sg37
I1
ssS'SIAVR'
p944
(dp945
g58
I1
ssS'AIBR'
p946
(dp947
g115
I1
sg95
I3
sg290
I3
sg332
I1
sg64
I1
sg603
I1
sg27
I1
sg146
I1
sg328
I2
sg299
I3
sg46
I17
sg192
I3
sg159
I1
sg568
I1
sg298
I4
sg523
I1
sg195
I1
sg335
I1
ssS'PVCR'
p948
(dp949
g263
I2
sg581
I1
sg196
I3
sg154
I1
sg265
I1
sg155
I4
sg460
I1
sg266
I2
sg210
I8
sg64
I1
sg516
I1
sg27
I10
sg100
I2
sg30
I12
sg102
I1
sg136
I1
sg153
I5
sg141
I1
sg151
I3
sg462
I1
sg477
I1
sg319
I1
sg33
I3
sg906
I2
sg85
I1
sg80
I1
sg95
I6
sg24
I1
sg630
I1
sg741
I2
sg300
I1
sg465
I3
sg104
I2
sg59
I2
sg35
I5
sg108
I1
sg440
I1
sg39
I8
ssS'AVKR'
p950
(dp951
g357
I1
sg316
I2
sg165
I2
sg115
I2
sg516
I1
sg295
I1
sg352
I1
sg445
I1
sg320
I6
sg166
I1
sg478
I1
sg70
I1
sg446
I2
sg236
I2
sg486
I1
sg436
I1
sg568
I1
sg46
I2
sg299
I1
ssS'OLQVR'
p952
(dp953
g751
I4
sg63
I1
sg160
I1
sg161
I1
sg58
I1
sg67
I1
sg69
I2
sg242
I4
sg72
I2
sg66
I1
sg166
I1
sg457
I1
ssS'RMDVR'
p954
(dp955
g751
I1
sg295
I1
sg163
I1
sg242
I1
sg444
I1
sg64
I1
sg308
I1
sg534
I1
sg132
I1
sg494
I1
sg701
I1
sg538
I1
sg449
I1
sg136
I1
sg364
I1
sg63
I1
sg566
I1
sg133
I4
sg363
I1
sg65
I1
sg230
I1
sg59
I1
ssS'M3R'
p956
(dp957
S'MCL'
p958
I1
sg546
I3
sg121
I1
sg120
I2
sg89
I3
sg246
I6
sg247
I1
sg125
I4
sg126
I1
sg92
I1
sg548
I2
sg123
I4
sS'MCR'
p959
I1
ssS'RIPR'
p960
(dp961
g444
I1
sg569
I1
sg388
I1
ssS'RMDVL'
p962
(dp963
g363
I1
sg63
I6
sg65
I1
sg696
I1
sg230
I1
sg567
I1
sg162
I1
sg233
I1
sg234
I1
sg235
I1
sg133
I1
sg159
I1
sg238
I1
sg538
I1
sg168
I1
sg136
I1
sg388
I1
ssS'AVKL'
p964
(dp965
g263
I3
sg231
I2
sg83
I1
sg316
I1
sg446
I1
sg109
I1
sg332
I2
sg268
I1
sg516
I2
sg192
I4
sg320
I1
sg720
I1
sg527
I1
sg136
I1
sg742
I1
sg115
I1
sg165
I1
sg46
I2
sg64
I2
sg290
I1
sg239
I1
sg462
I1
sg67
I1
sg479
I1
sg70
I1
sg486
I1
sg74
I1
sg39
I1
ssS'PHAR'
p966
(dp967
g357
I2
sg84
I1
sg606
I5
sg83
I1
sg320
I3
sg759
I8
sg608
I1
sg507
I3
sg288
I1
ssS'PVCL'
p968
(dp969
g81
I7
sg83
I5
sg196
I4
sg154
I3
sg265
I2
sg155
I3
sg460
I3
sg266
I2
sg64
I2
sg462
I3
sg27
I4
sg146
I2
sg30
I3
sg136
I1
sg153
I5
sg145
I1
sg32
I2
sg283
I1
sg284
I1
sg287
I1
sg33
I4
sg95
I12
sg775
I1
sg461
I1
sg24
I2
sg464
I2
sg147
I1
sg104
I2
sg371
I1
sg151
I1
sg35
I5
sg107
I2
sg108
I1
sg39
I5
ssS'AIBL'
p970
(dp971
g332
I1
sg115
I14
sg522
I1
sg239
I2
sg58
I4
sg328
I1
sg46
I2
sg30
I2
sg165
I4
sg568
I2
sg319
I1
sg25
I1
sg166
I4
sg52
I1
sg76
I1
sg117
I1
sg39
I5
ssS'URAVL'
p972
(dp973
g161
I1
sg237
I2
sg36
I3
sg534
I2
sg132
I3
sg494
I2
sg404
I1
sg538
I2
ssS'AWAR'
p974
(dp975
g258
I2
sg209
I1
sg250
I2
sg25
I2
sg260
I1
sg45
I1
sg116
I3
sg485
I2
sg523
I7
sg166
I1
sg50
I8
sg613
I1
sg487
I1
ssS'ASIL'
p976
(dp977
g44
I1
sg25
I1
sg208
I1
sg298
I1
sg117
I2
sg31
I2
sg49
I2
sg37
I1
sg654
I1
sg259
I1
ssS'ADER'
p978
(dp979
g477
I1
sg72
I1
sg290
I7
sg24
I2
sg435
I1
sg32
I1
sg315
I1
sg27
I1
sg29
I1
sg566
I1
sg136
I1
sg30
I5
sg236
I2
sg319
I1
sg295
I2
sg436
I2
sg75
I2
sg231
I1
sg166
I4
sg167
I1
ssS'AQR'
p980
(dp981
g407
I2
sg95
I4
sg113
I1
sg81
I2
sg290
I2
sg24
I1
sg231
I1
sg27
I3
sg320
I8
sg720
I9
sg30
I1
sg236
I2
sg491
I1
sg33
I1
sg166
I1
sg35
I1
sg335
I3
sg754
I2
sg39
I4
ssS'SIBVL'
p982
(dp983
g95
I1
sg832
I1
sg322
I1
sg298
I1
sg39
I1
ssS'VA10'
p984
(dp985
g704
I5
sg327
I5
sg27
I1
sg30
I1
sg705
I5
sg331
I5
ssS'I3'
p986
(dp987
g543
I2
sg92
I2
sg542
I2
ssS'URBL'
p988
(dp989
g476
I1
sg131
I1
sg63
I1
sg34
I1
sg67
I1
sg316
I1
sg490
I1
sg491
I2
sg39
I1
sg388
I1
ssS'I5'
p990
(dp991
g124
I2
sg125
I4
sg92
I1
sg121
I2
sg123
I3
ssS'thermosensory'
p992
(dp993
S'AFDL'
p994
I1
sS'AFDR'
p995
I1
ssS'PVPL'
p996
(dp997
g95
I6
sg152
I1
sg81
I3
sg762
I4
sg290
I2
sg516
I8
sg231
I6
sg24
I2
sg27
I1
sg607
I3
sg328
I2
sg720
I1
sg30
I2
sg84
I1
sg394
I1
sg332
I1
sg136
I1
sg236
I1
sg289
I2
sg39
I5
ssS'I6'
p998
(dp999
g546
I2
sg90
I2
sg124
I2
sg547
I1
sg91
I2
sg548
I2
sg120
I1
ssS'PVPR'
p1000
(dp1001
g81
I7
sg328
I14
sg236
I1
sg210
I4
sg516
I11
sg178
I1
sg27
I2
sg320
I1
sg30
I1
sg115
I1
sg95
I5
sg113
I2
sg173
I1
sg174
I1
sg323
I3
sg116
I1
sg300
I4
sg252
I1
sg166
I1
sg39
I4
sg53
I1
sg253
I1
ssS'VC1'
p1002
(dp1003
g143
I5
sg152
I1
sg142
I1
sg173
I5
sg174
I2
sg179
I1
sg177
I6
sg178
I6
sg144
I7
sg328
I1
sg300
I2
sg589
I9
sg517
I3
sg47
I6
sg332
I2
ssS'VC2'
p1004
(dp1005
g143
I2
sg142
I2
sg173
I5
sg81
I1
sg179
I1
sg177
I9
sg178
I4
sg144
I6
sg328
I1
sg711
I10
sg517
I6
sg332
I2
sg174
I5
sg47
I10
sg155
I1
sg253
I1
ssS'VC3'
p1006
(dp1007
g328
I1
sg51
I1
sg177
I5
sg178
I4
sg144
I2
sg101
I13
sg720
I1
sg711
I4
sg589
I3
sg941
I1
sg54
I2
sg152
I1
sg47
I11
sg143
I1
sg439
I1
sg142
I1
sg173
I4
sg174
I2
sg98
I5
sg179
I4
sg300
I1
sg253
I4
ssS'VC4'
p1008
(dp1009
g47
I7
sg84
I1
sg711
I1
sg517
I5
sg54
I2
sg441
I1
sg39
I1
ssS'VC5'
p1010
(dp1011
g43
I1
sg332
I1
sg385
I3
sg328
I2
sg517
I3
sg941
I2
sg47
I2
sg75
I1
sg441
I1
sg114
I1
ssS'VC6'
p1012
(dp1013
g47
I1
ssS'M3L'
p1014
(dp1015
g122
I1
sg546
I3
sg121
I1
sg89
I3
sg246
I2
sg247
I1
sg125
I4
sg958
I1
sg92
I1
sg548
I2
sg123
I4
sg959
I1
ssS'ADEL'
p1016
(dp1017
g751
I1
sg130
I1
sg76
I1
sg231
I1
sg168
I2
sg316
I1
sg450
I1
sg490
I1
sg603
I1
sg134
I1
sg268
I1
sg27
I3
sg387
I1
sg30
I2
sg394
I1
sg72
I2
sg52
I1
sg476
I1
sg385
I1
sg708
I1
sg319
I1
sg64
I1
sg290
I5
sg26
I1
sg408
I1
sg300
I1
sg478
I1
sg166
I3
sg335
I1
ssS'RMGR'
p1018
(dp1019
g95
I1
sg403
I2
sg451
I1
sg358
I1
sg45
I1
sg315
I1
sg168
I4
sg27
I1
sg251
I1
sg485
I1
sg164
I1
sg696
I1
sg33
I1
sg136
I3
sg35
I1
sg162
I5
sg232
I1
sg295
I2
sg77
I1
sg53
I2
sg929
I1
ssS'RIVL'
p1020
(dp1021
g113
I-1
sg322
I-2
sg37
I-1
sg239
I-3
sg603
I-2
sg165
I-1
sg159
I-1
sg168
I-2
sg74
I-2
sg363
I-2
sg335
I-1
sg230
I-1
sg696
I-1
ssS'PDER'
p1022
(dp1023
g263
I3
sg81
I1
sg326
I1
sg83
I35
sg100
I1
sg236
I16
sg210
I1
sg742
I1
ssS'ASIR'
p1024
(dp1025
g208
I1
sg23
I1
sg692
I1
sg209
I5
sg31
I1
sg260
I2
sg53
I1
sg259
I1
ssS'AWAL'
p1026
(dp1027
g112
I1
sg44
I10
sg522
I5
sg693
I1
sg28
I1
sg394
I1
sg31
I1
sg260
I4
sg117
I1
ssS'AIZL'
p1028
(dp1029
g22
I1
sg23
I8
sg290
I1
sg227
I1
sg335
I8
sg83
I1
sg693
I1
sg530
I7
sg46
I4
sg446
I9
sg31
I3
sg260
I1
sg136
I5
sg50
I2
sg37
I2
ssS'PHBL'
p1030
(dp1031
g606
I4
sg27
I6
sg30
I9
sg35
I1
sg210
I13
sg86
I1
ssS'VB6'
p1032
(dp1033
g95
I2
sg47
I6
sg105
I6
sg98
I8
sg179
I1
sg101
I30
sg183
I1
sg100
I1
sg465
I1
sg96
I6
sg371
I1
sg106
I6
sg103
I6
sg39
I1
ssS'IL1VR'
p1034
(dp1035
g63
I10
sg243
I2
sg233
I5
sg68
I1
sg69
I6
sg164
I1
sg238
I5
sg135
I1
sg161
I1
ssS'ADFL'
p1036
(dp1037
g497
I5
sg44
I12
sg290
I1
sg34
I1
sg485
I2
sg530
I2
sg394
I2
sg335
I15
ssS'RIBL'
p1038
(dp1039
g23
I2
sg34
I1
sg163
I4
sg446
I1
sg832
I1
sg332
I1
sg64
I1
sg58
I3
sg454
I1
sg30
I1
sg298
I1
sg136
I5
sg388
I2
sg497
I1
sg407
I1
sg95
I2
sg131
I1
sg290
I1
sg24
I1
sg464
I1
sg299
I1
sg59
I1
sg335
I3
sg39
I1
ssS'DA4'
p1040
(dp1041
g173
I15
sg174
I12
sg178
I1
sg172
I5
sg27
I2
sg181
I4
sg182
I4
sg187
I4
sg184
I5
sg30
I3
sg185
I4
sg286
I1
sg194
I1
sg196
I2
sg104
I1
ssS'DA5'
p1042
(dp1043
g173
I1
sg97
I2
sg179
I16
sg180
I5
sg172
I4
sg27
I5
sg184
I4
sg30
I1
sg186
I5
sg155
I1
sg291
I1
sg278
I2
ssS'DA6'
p1044
(dp1045
g173
I3
sg174
I4
sg179
I3
sg180
I4
sg172
I4
sg27
I2
sg181
I4
sg182
I6
sg184
I4
sg30
I10
sg511
I4
sg185
I4
sg186
I4
sg510
I4
sg187
I4
ssS'DA7'
p1046
(dp1047
g200
I4
sg201
I4
sg202
I4
sg204
I4
sg203
I4
sg30
I2
sg205
I4
ssS'DA1'
p1048
(dp1049
g143
I17
sg149
I8
sg142
I1
sg144
I4
sg27
I6
sg271
I3
sg183
I1
sg42
I2
sg30
I2
sg156
I8
ssS'DA2'
p1050
(dp1051
g140
I1
sg141
I1
sg152
I5
sg142
I11
sg190
I2
sg148
I2
sg144
I1
sg27
I2
sg150
I2
sg42
I1
sg30
I2
sg149
I1
sg193
I2
sg191
I2
sg321
I2
sg143
I2
sg156
I2
sg197
I2
ssS'DA3'
p1052
(dp1053
g190
I5
sg152
I25
sg174
I6
sg176
I2
sg178
I1
sg27
I2
sg181
I5
sg191
I5
sg183
I2
sg193
I5
sg187
I5
sg196
I1
sg197
I5
ssS'AIZR'
p1054
(dp1055
g112
I1
sg23
I1
sg44
I2
sg115
I4
sg64
I4
sg209
I1
sg83
I1
sg113
I7
sg316
I5
sg71
I1
sg165
I1
sg486
I3
sg136
I1
sg37
I8
sg53
I1
ssS'DA8'
p1056
(dp1057
g221
I4
sg222
I4
sg201
I4
sg223
I4
sg27
I1
sg204
I4
sg224
I4
sg85
I1
ssS'DA9'
p1058
(dp1059
g338
I4
sg339
I4
sg340
I4
sg341
I4
sg222
I4
sg342
I4
sg82
I1
sg469
I1
sg345
I4
sg289
I1
sg224
I4
sg153
I1
sg288
I1
sg343
I4
sg344
I1
sg347
I4
ssS'VB2'
p1060
(dp1061
g155
I1
sg377
I4
sg353
I4
sg178
I1
sg144
I20
sg589
I1
sg354
I4
sg264
I1
sg714
I4
sg95
I1
sg152
I3
sg142
I9
sg715
I4
sg290
I1
sg232
I4
sg147
I1
sg352
I4
sg192
I4
sg379
I4
sg465
I2
sg371
I1
sg39
I3
ssS'ASHL'
p1062
(dp1063
g44
I1
sg24
I2
sg335
I4
sg26
I1
sg70
I2
sg36
I1
sg498
I3
sg30
I2
sg394
I2
sg31
I7
sg35
I2
sg46
I1
sg49
I1
sg37
I5
sg53
I1
sg39
I6
ssS'SAAVR'
p1064
(dp1065
g115
I2
sg27
I13
sg162
I1
sg530
I2
sg299
I6
sg46
I5
ssS'RIAR'
p1066
(dp1067
g163
I-7
sg295
I-8
sg131
I-1
sg63
I-11
sg160
I-1
sg243
I-1
sg168
I-3
sg162
I-10
sg387
I-1
sg299
I-7
sg242
I-12
sg165
I-7
sg159
I-13
sg76
I-1
sg133
I-10
sg335
I-4
sg239
I-1
sg454
I-1
ssS'MCL'
p1068
(dp1069
g90
I1
sg542
I2
sg123
I3
sg543
I2
sg125
I3
sg92
I1
sg91
I1
sg120
I1
ssS'VB11'
p1070
(dp1071
g95
I1
sg582
I5
sg584
I5
sg583
I5
sg81
I1
sg303
I5
sg469
I7
sg579
I5
sg304
I5
sg580
I5
sg86
I2
sg39
I2
ssS'SIAVL'
p1072
(dp1073
g298
I1
ssS'AVDR'
p1074
(dp1075
g129
I1
sg33
I2
sg328
I1
sg155
I1
sg267
I1
sg27
I15
sg271
I1
sg42
I3
sg30
I16
sg394
I2
sg273
I1
sg264
I1
sg274
I2
sg275
I1
sg277
I1
sg175
I1
sg435
I1
sg183
I1
sg283
I2
sg286
I2
sg287
I1
sg194
I1
sg288
I1
sg85
I1
sg762
I1
sg35
I2
sg292
I2
sg39
I1
ssS'PHBR'
p1076
(dp1077
g43
I1
sg81
I3
sg24
I1
sg27
I7
sg323
I1
sg30
I7
sg608
I4
sg35
I1
sg210
I6
sg288
I1
sg86
I2
ssS'MCR'
p1078
(dp1079
g120
I1
sg542
I2
sg123
I3
sg543
I2
sg125
I3
sg92
I1
ssS'LUAL'
p1080
(dp1081
g775
I1
sg24
I2
sg741
I1
sg27
I6
sg30
I6
sg477
I1
sg608
I1
sg33
I1
sg35
I4
sg466
I1
ssS'osmosensory, mechanosensory, odorsensory, nociceptive'
p1082
(dp1083
S'ASHL'
p1084
I1
sS'ASHR'
p1085
I1
ssS'RMDL'
p1086
(dp1087
g113
I3
sg232
I1
sg63
I1
sg696
I2
sg295
I3
sg161
I1
sg307
I1
sg445
I1
sg450
I2
sg242
I1
sg494
I1
sg539
I1
sg567
I1
sg133
I1
sg235
I1
sg75
I2
sg335
I4
sg233
I1
ssS'AVDL'
p1088
(dp1089
g319
I1
sg210
I1
sg315
I2
sg27
I19
sg271
I1
sg42
I1
sg30
I13
sg272
I2
sg273
I1
sg277
I1
sg278
I1
sg145
I1
sg175
I1
sg176
I1
sg435
I1
sg183
I1
sg283
I1
sg286
I1
sg287
I1
sg194
I4
sg288
I1
sg479
I2
sg292
I1
ssS'RIAL'
p1090
(dp1091
g113
I-1
sg295
I-6
sg63
I-7
sg76
I-2
sg296
I-1
sg162
I-11
sg299
I-8
sg163
I-11
sg242
I-9
sg165
I-10
sg159
I-6
sg603
I-4
sg133
I-12
sg168
I-6
sg454
I-2
ssS'DD1'
p1092
(dp1093
g143
I-4
sg95
I-1
sg142
I-3
sg190
I-5
sg178
I-1
sg150
I-4
sg148
I-4
sg149
I-4
sg193
I-4
sg287
I-2
sg191
I-4
sg156
I-4
sg197
I-5
ssS'ASHR'
p1094
(dp1095
g22
I1
sg95
I3
sg23
I3
sg24
I1
sg358
I1
sg67
I2
sg315
I3
sg209
I10
sg27
I5
sg113
I2
sg116
I2
sg720
I1
sg252
I3
sg136
I3
sg35
I5
sg50
I1
sg51
I1
ss.