(dp0
S'VB4'
p1
(dp2
S'AVBR'
p3
I1
sS'MVR11'
p4
I5
sS'MVR14'
p5
I5
sS'DD3'
p6
I16
sS'DD2'
p7
I6
sS'MVL11'
p8
I5
sS'MVL14'
p9
I5
sS'VB5'
p10
I1
sS'DB1'
p11
I1
sS'DB4'
p12
I1
sS'AVBL'
p13
I1
ssS'ADLL'
p14
(dp15
S'ASHL'
p16
I2
sS'AIBR'
p17
I1
sS'AVDR'
p18
I1
sS'ASER'
p19
I3
sS'RMGL'
p20
I1
sS'AVAR'
p21
I3
sS'AWBL'
p22
I2
sS'ALA'
p23
I2
sS'AVAL'
p24
I2
sS'AIAL'
p25
I6
sS'AVJR'
p26
I3
sS'AVJL'
p27
I1
sS'OLQVL'
p28
I2
sS'AVDL'
p29
I1
sS'RIPL'
p30
I1
sS'AIBL'
p31
I7
sS'ADLR'
p32
I1
sS'AVBL'
p33
I2
ssS'VD7'
p34
(dp35
S'MVULVA'
p36
I-15
sS'MVR16'
p37
I-7
sS'MVR15'
p38
I-7
sS'VD6'
p39
I1
sS'VA9'
p40
I1
sS'MVL15'
p41
I-7
sS'MVL16'
p42
I-7
ssS'HSNL'
p43
(dp44
S'ASHL'
p45
I1
sS'SABVL'
p46
I2
sS'AVFL'
p47
I6
sS'AIZL'
p48
I2
sS'AVDR'
p49
I2
sS'AWBR'
p50
I2
sS'RIML'
p51
I2
sS'AWBL'
p52
I1
sS'MVULVA'
p53
I7
sS'AIAL'
p54
I1
sS'AVJL'
p55
I1
sS'ASJR'
p56
I1
sS'ASKL'
p57
I1
sS'AIZR'
p58
I1
sS'HSNR'
p59
I1
sS'RIFL'
p60
I3
sS'ASHR'
p61
I2
sS'VC5'
p62
I3
ssS'SIBDR'
p63
(dp64
S'AIML'
p65
I1
sS'RIBR'
p66
I1
sS'SIBVR'
p67
I1
ssS'CEPVR'
p68
(dp69
S'URAVR'
p70
I1
sS'RMDDR'
p71
I2
sS'AVEL'
p72
I5
sS'MVR04'
p73
I1
sS'IL1VR'
p74
I1
sS'RICR'
p75
I2
sS'IL2VR'
p76
I2
sS'RIPR'
p77
I1
sS'RICL'
p78
I2
sS'ASGR'
p79
I1
sS'RIH'
p80
I1
sS'OLQVR'
p81
I1
sS'SIAVR'
p82
I2
sS'OLLR'
p83
I7
sS'RIVL'
p84
I1
sS'RMHR'
p85
I2
ssS'PHCR'
p86
(dp87
S'LUAR'
p88
I1
sS'PVCR'
p89
I9
sS'PHCL'
p90
I2
sS'DVA'
p91
I8
sS'AVHR'
p92
I1
sS'DA9'
p93
I2
sS'VA12'
p94
I2
ssS'VD8'
p95
(dp96
S'VA8'
p97
I5
sS'MVL15'
p98
I-18
sS'MVR15'
p99
I-18
sS'DD4'
p100
I2
ssS'VA8'
p101
(dp102
S'AVBR'
p103
I1
sS'AS6'
p104
I1
sS'MVR15'
p105
I6
sS'VD8'
p106
I1
sS'AVAR'
p107
I4
sS'VA8'
p108
I1
sS'DD4'
p109
I21
sS'VD7'
p110
I5
sS'AVAL'
p111
I10
sS'VA9'
p112
I1
sS'MVL15'
p113
I6
sS'VB6'
p114
I1
sS'MVL16'
p115
I6
sS'PVCR'
p116
I2
sS'VB9'
p117
I3
sS'VB8'
p118
I3
sS'PDER'
p119
I1
sS'MVR16'
p120
I6
ssS'AIYR'
p121
(dp122
S'AWAR'
p123
I1
sS'RIAR'
p124
I6
sS'HSNL'
p125
I1
sS'RIMR'
p126
I1
sS'RIBR'
p127
I2
sS'ADFR'
p128
I1
sS'AIZR'
p129
I8
sS'AIYL'
p130
I1
ssS'M2R'
p131
(dp132
S'I3'
p133
I3
sS'MI'
p134
I4
sS'M3R'
p135
I1
sS'I1R'
p136
I3
sS'M5'
p137
I1
sS'I1L'
p138
I3
sS'M3L'
p139
I1
ssS'CEPVL'
p140
(dp141
S'ADLL'
p142
I1
sS'OLLL'
p143
I4
sS'SIAVL'
p144
I1
sS'OLQVL'
p145
I1
sS'RICR'
p146
I4
sS'RIPL'
p147
I1
sS'MVL03'
p148
I1
sS'RICL'
p149
I7
sS'RMHL'
p150
I1
sS'RMDDL'
p151
I4
sS'RIH'
p152
I1
sS'IL1VL'
p153
I2
sS'AVER'
p154
I3
sS'URAVL'
p155
I2
ssS'DB1'
p156
(dp157
S'AS3'
p158
I1
sS'AS2'
p159
I1
sS'AIBR'
p160
I1
sS'VD2'
p161
I15
sS'VD1'
p162
I21
sS'AVBR'
p163
I3
sS'DD1'
p164
I10
sS'DVA'
p165
I1
sS'AS1'
p166
I1
sS'MDL07'
p167
I1
sS'VB3'
p168
I1
sS'MDR07'
p169
I1
sS'MDL08'
p170
I1
sS'RIS'
p171
I1
sS'VB4'
p172
I1
sS'VD3'
p173
I1
sS'RID'
p174
I1
sS'DB2'
p175
I1
sS'DB4'
p176
I1
sS'MDR08'
p177
I1
ssS'OLLR'
p178
(dp179
S'SMDVL'
p180
I4
sS'OLLL'
p181
I2
sS'AVEL'
p182
I16
sS'CEPVR'
p183
I6
sS'RMER'
p184
I2
sS'RIBR'
p185
I10
sS'RMDVR'
p186
I3
sS'SMDVR'
p187
I3
sS'RMDDR'
p188
I10
sS'IL2R'
p189
I1
sS'SMDDR'
p190
I1
sS'IL1VR'
p191
I1
sS'RIGR'
p192
I1
sS'CEPDR'
p193
I1
sS'RMDL'
p194
I3
sS'IL1DR'
p195
I3
ssS'DB3'
p196
(dp197
S'AVBR'
p198
I1
sS'VD5'
p199
I26
sS'VD4'
p200
I9
sS'AS5'
p201
I1
sS'AS4'
p202
I1
sS'DD3'
p203
I10
sS'DD2'
p204
I4
sS'MDL14'
p205
I3
sS'MDL13'
p206
I4
sS'MDL12'
p207
I3
sS'MDL11'
p208
I3
sS'VD6'
p209
I7
sS'DA4'
p210
I1
sS'MDR14'
p211
I3
sS'MDR11'
p212
I3
sS'MDR13'
p213
I4
sS'MDR12'
p214
I3
sS'DB2'
p215
I6
sS'DB4'
p216
I1
sS'AVBL'
p217
I1
ssS'DB2'
p218
(dp219
S'AVBR'
p220
I1
sS'VD3'
p221
I23
sS'VD5'
p222
I1
sS'VD4'
p223
I14
sS'MDL09'
p224
I3
sS'DD2'
p225
I3
sS'MDR12'
p226
I3
sS'MDL12'
p227
I3
sS'MDL11'
p228
I3
sS'MDL10'
p229
I3
sS'VB1'
p230
I2
sS'MDR11'
p231
I3
sS'MDR10'
p232
I3
sS'DA3'
p233
I5
sS'DB1'
p234
I1
sS'DB3'
p235
I6
sS'MDR09'
p236
I3
ssS'DB5'
p237
(dp238
S'AVBR'
p239
I1
sS'MDL18'
p240
I2
sS'MDL17'
p241
I2
sS'MDL15'
p242
I2
sS'AVAR'
p243
I2
sS'MDR15'
p244
I2
sS'MDR17'
p245
I2
sS'MDR18'
p246
I2
sS'AVBL'
p247
I1
ssS'AIYL'
p248
(dp249
S'AIYR'
p250
I1
sS'AIZL'
p251
I13
sS'AWCR'
p252
I1
sS'RIBL'
p253
I4
sS'AWCL'
p254
I1
sS'RIML'
p255
I1
sS'HSNR'
p256
I1
sS'RIAL'
p257
I7
sS'AWAL'
p258
I3
ssS'DB7'
p259
(dp260
S'MDL22'
p261
I2
sS'AVBR'
p262
I1
sS'MDL21'
p263
I2
sS'MDL24'
p264
I2
sS'MDL19'
p265
I2
sS'MDL23'
p266
I2
sS'VD13'
p267
I2
sS'MDR24'
p268
I2
sS'MDR23'
p269
I2
sS'MDR19'
p270
I2
sS'MDR21'
p271
I2
sS'MDR22'
p272
I2
sS'AVBL'
p273
I2
ssS'DB6'
p274
(dp275
S'AVBR'
p276
I1
sS'MDL20'
p277
I2
sS'MDL19'
p278
I2
sS'MDL17'
p279
I2
sS'MDR20'
p280
I2
sS'MDR17'
p281
I2
sS'AVAL'
p282
I3
sS'MDR19'
p283
I2
sS'AVBL'
p284
I2
ssS'VB7'
p285
(dp286
S'AVBR'
p287
I2
sS'MVR15'
p288
I5
sS'DD4'
p289
I2
sS'VB2'
p290
I2
sS'MVL15'
p291
I5
sS'AVBL'
p292
I2
ssS'URAVR'
p293
(dp294
S'MVR04'
p295
I2
sS'IL1R'
p296
I1
sS'MVR01'
p297
I2
sS'MVR02'
p298
I2
sS'MVR03'
p299
I2
sS'RIPR'
p300
I3
sS'RMDVL'
p301
I1
sS'RMEV'
p302
I2
sS'RMER'
p303
I2
ssS'NSMR'
p304
(dp305
S'M3R'
p306
I2
sS'I2R'
p307
I6
sS'I5'
p308
I2
sS'I4'
p309
I3
sS'I1R'
p310
I2
sS'I1L'
p311
I2
sS'M3L'
p312
I2
sS'I2L'
p313
I6
sS'I6'
p314
I2
sS'I3'
p315
I2
ssS'ASKR'
p316
(dp317
S'AWAR'
p318
I1
sS'RIFR'
p319
I1
sS'CEPVR'
p320
I1
sS'AIAR'
p321
I11
sS'AIMR'
p322
I1
sS'RMGR'
p323
I1
sS'ASKL'
p324
I1
sS'ASHR'
p325
I1
sS'PVQR'
p326
I4
ssS'RMFR'
p327
(dp328
S'AVKR'
p329
I3
sS'AVKL'
p330
I3
sS'RMDL'
p331
I2
ssS'AWCR'
p332
(dp333
S'AIBR'
p334
I4
sS'AIYR'
p335
I9
sS'AIAR'
p336
I1
sS'ASGR'
p337
I1
sS'AWCL'
p338
I5
sS'ASEL'
p339
I1
sS'AIYL'
p340
I4
ssS'AVAR'
p341
(dp342
S'PDEL'
p343
I1
sS'PVCR'
p344
I8
sS'VA2'
p345
I2
sS'DB3'
p346
I1
sS'PVCL'
p347
I7
sS'DB5'
p348
I3
sS'PDER'
p349
I1
sS'VA12'
p350
I1
sS'DB6'
p351
I5
sS'VA11'
p352
I15
sS'VA8'
p353
I16
sS'RIMR'
p354
I1
sS'ADER'
p355
I1
sS'VA10'
p356
I5
sS'URYVL'
p357
I1
sS'SABVR'
p358
I1
sS'SABVL'
p359
I6
sS'AVAL'
p360
I6
sS'AS11'
p361
I6
sS'AS10'
p362
I2
sS'AVER'
p363
I2
sS'VA3'
p364
I7
sS'VA6'
p365
I5
sS'VA7'
p366
I4
sS'SABD'
p367
I1
sS'VA5'
p368
I4
sS'AS3'
p369
I2
sS'AS2'
p370
I2
sS'AS1'
p371
I3
sS'AS7'
p372
I8
sS'AS6'
p373
I3
sS'AS5'
p374
I2
sS'AS4'
p375
I1
sS'AS9'
p376
I6
sS'AS8'
p377
I9
sS'URYDR'
p378
I1
sS'DA4'
p379
I8
sS'DA5'
p380
I7
sS'DA6'
p381
I13
sS'DA7'
p382
I3
sS'DA1'
p383
I8
sS'DA2'
p384
I4
sS'DA3'
p385
I5
sS'RIML'
p386
I2
sS'DA8'
p387
I9
sS'DA9'
p388
I2
sS'VD13'
p389
I2
sS'LUAR'
p390
I3
sS'AVEL'
p391
I2
sS'RIGL'
p392
I1
sS'AVDR'
p393
I2
sS'VA4'
p394
I5
sS'AVDL'
p395
I1
sS'VB9'
p396
I10
sS'LUAL'
p397
I1
sS'AVBL'
p398
I1
ssS'RIS'
p399
(dp400
S'AIBR'
p401
I1
sS'RMDR'
p402
I4
sS'AVKR'
p403
I4
sS'RMDL'
p404
I2
sS'SMDVR'
p405
I1
sS'RIML'
p406
I2
sS'SMDVL'
p407
I1
sS'AVKL'
p408
I1
sS'CEPVL'
p409
I2
sS'DB1'
p410
I1
sS'OLLR'
p411
I1
sS'AVEL'
p412
I7
sS'RIBR'
p413
I5
sS'URYVR'
p414
I1
sS'RIBL'
p415
I3
sS'CEPVR'
p416
I1
sS'AVER'
p417
I7
sS'RIMR'
p418
I5
sS'AVJL'
p419
I1
sS'RMDDL'
p420
I1
sS'CEPDR'
p421
I1
sS'SMDDL'
p422
I1
sS'AVL'
p423
I2
sS'SMDDR'
p424
I3
ssS'VD10'
p425
(dp426
S'AVBR'
p427
I1
sS'MVR17'
p428
I-9
sS'MVR20'
p429
I-9
sS'VD9'
p430
I5
sS'DVC'
p431
I4
sS'DD5'
p432
I2
sS'MVL17'
p433
I-9
sS'MVL20'
p434
I-9
sS'VB9'
p435
I2
ssS'RICR'
p436
(dp437
S'SMDVR'
p438
I1
sS'SMDVL'
p439
I2
sS'ADAR'
p440
I1
sS'AVAR'
p441
I5
sS'SMBDR'
p442
I1
sS'SMDDL'
p443
I4
sS'AVAL'
p444
I5
sS'SMDDR'
p445
I3
sS'AVKL'
p446
I1
sS'ASHR'
p447
I2
ssS'AVAL'
p448
(dp449
S'FLPL'
p450
I1
sS'AVJL'
p451
I2
sS'PVCR'
p452
I11
sS'PVCL'
p453
I12
sS'DB5'
p454
I2
sS'VA11'
p455
I7
sS'VA12'
p456
I2
sS'DB6'
p457
I4
sS'RIMR'
p458
I3
sS'VA9'
p459
I8
sS'VA10'
p460
I6
sS'AVAR'
p461
I7
sS'PVPL'
p462
I1
sS'SABVR'
p463
I1
sS'VA8'
p464
I19
sS'URYVR'
p465
I1
sS'AS11'
p466
I4
sS'AS10'
p467
I3
sS'VA2'
p468
I5
sS'VA3'
p469
I3
sS'VA1'
p470
I3
sS'VA6'
p471
I10
sS'VA7'
p472
I2
sS'SABD'
p473
I4
sS'VA5'
p474
I8
sS'AS3'
p475
I3
sS'AS2'
p476
I1
sS'AS1'
p477
I3
sS'AS7'
p478
I14
sS'AS6'
p479
I1
sS'AS5'
p480
I4
sS'AS4'
p481
I1
sS'AS9'
p482
I12
sS'AS8'
p483
I9
sS'DA4'
p484
I10
sS'DA5'
p485
I8
sS'DA6'
p486
I21
sS'DA7'
p487
I4
sS'DA1'
p488
I4
sS'DA2'
p489
I4
sS'DA3'
p490
I6
sS'DA8'
p491
I4
sS'DA9'
p492
I3
sS'AVBR'
p493
I1
sS'SDQR'
p494
I1
sS'AVHL'
p495
I1
sS'URYDL'
p496
I1
sS'VA4'
p497
I3
sS'AVDL'
p498
I1
sS'VB9'
p499
I5
sS'LUAL'
p500
I2
ssS'VA9'
p501
(dp502
S'AVBR'
p503
I1
sS'VB8'
p504
I1
sS'PVCR'
p505
I1
sS'MVR15'
p506
I5
sS'VD9'
p507
I10
sS'MVR18'
p508
I5
sS'DVC'
p509
I1
sS'DVB'
p510
I1
sS'VD7'
p511
I1
sS'AVAL'
p512
I1
sS'MVL15'
p513
I5
sS'DD5'
p514
I15
sS'MVL18'
p515
I5
sS'VB9'
p516
I4
sS'DD4'
p517
I3
sS'PVT'
p518
I1
ssS'AWCL'
p519
(dp520
S'AIBR'
p521
I1
sS'AWCR'
p522
I1
sS'RIAL'
p523
I3
sS'AIAR'
p524
I4
sS'AVAL'
p525
I1
sS'AIAL'
p526
I2
sS'ASEL'
p527
I1
sS'AIBL'
p528
I1
sS'AIYL'
p529
I10
ssS'AS11'
p530
(dp531
S'MDL22'
p532
I1
sS'MDL23'
p533
I1
sS'MDL21'
p534
I1
sS'VD13'
p535
I2
sS'MDL24'
p536
I1
sS'PDB'
p537
I2
sS'PDA'
p538
I1
sS'MDR24'
p539
I1
sS'MDR21'
p540
I1
sS'MDR22'
p541
I1
sS'MDR23'
p542
I1
ssS'AS10'
p543
(dp544
S'MDL20'
p545
I2
sS'MDL19'
p546
I3
sS'MDR20'
p547
I2
sS'AVAR'
p548
I1
sS'AVAL'
p549
I1
sS'MDR19'
p550
I3
ssS'VA2'
p551
(dp552
S'VD1'
p553
I1
sS'MVR10'
p554
I5
sS'DD1'
p555
I13
sS'MVR07'
p556
I5
sS'VB1'
p557
I2
sS'MVL10'
p558
I5
sS'AVAL'
p559
I5
sS'VD2'
p560
I11
sS'MVL07'
p561
I5
sS'VA3'
p562
I2
sS'SABD'
p563
I3
ssS'ASKL'
p564
(dp565
S'PVQL'
p566
I5
sS'ASKR'
p567
I1
sS'RMGL'
p568
I1
sS'AIML'
p569
I2
sS'AIAL'
p570
I11
sS'AIBL'
p571
I2
ssS'NSML'
p572
(dp573
S'M3R'
p574
I2
sS'I2R'
p575
I6
sS'I5'
p576
I2
sS'I4'
p577
I3
sS'I1R'
p578
I2
sS'I1L'
p579
I1
sS'M3L'
p580
I2
sS'I2L'
p581
I6
sS'I6'
p582
I2
sS'I3'
p583
I2
ssS'VA1'
p584
(dp585
S'VD1'
p586
I2
sS'MVR08'
p587
I3
sS'DD1'
p588
I9
sS'MVR07'
p589
I3
sS'AVAL'
p590
I3
sS'MVL07'
p591
I3
sS'DA2'
p592
I2
sS'MVL08'
p593
I3
ssS'VA6'
p594
(dp595
S'MVR13'
p596
I5
sS'VD5'
p597
I1
sS'MVR14'
p598
I5
sS'DD3'
p599
I24
sS'VD6'
p600
I2
sS'AVAR'
p601
I2
sS'MVL13'
p602
I5
sS'AVAL'
p603
I6
sS'MVL14'
p604
I5
sS'VB5'
p605
I2
ssS'VA7'
p606
(dp607
S'MVR13'
p608
I4
sS'MVULVA'
p609
I4
sS'MVR15'
p610
I4
sS'AS5'
p611
I1
sS'DD3'
p612
I3
sS'AVAR'
p613
I4
sS'MVL13'
p614
I4
sS'DD4'
p615
I12
sS'VB3'
p616
I1
sS'VD7'
p617
I9
sS'AVAL'
p618
I2
sS'MVL15'
p619
I4
sS'MVL16'
p620
I4
sS'MVR16'
p621
I4
ssS'VA4'
p622
(dp623
S'AS2'
p624
I2
sS'MVR11'
p625
I6
sS'VD4'
p626
I3
sS'VB3'
p627
I2
sS'MVR12'
p628
I6
sS'DD2'
p629
I21
sS'AVAR'
p630
I2
sS'MVL11'
p631
I6
sS'DA5'
p632
I1
sS'AVAL'
p633
I1
sS'MVL12'
p634
I6
sS'AVDL'
p635
I1
sS'SABD'
p636
I1
ssS'VA5'
p637
(dp638
S'AS3'
p639
I2
sS'MVR11'
p640
I5
sS'VD5'
p641
I2
sS'MVR14'
p642
I5
sS'DD3'
p643
I13
sS'DD2'
p644
I5
sS'AVAR'
p645
I3
sS'MVL11'
p646
I5
sS'DA5'
p647
I2
sS'AVAL'
p648
I5
sS'MVL14'
p649
I5
ssS'CEPDL'
p650
(dp651
S'IL1DL'
p652
I4
sS'URYDL'
p653
I2
sS'SMBDR'
p654
I1
sS'OLLL'
p655
I2
sS'URBL'
p656
I4
sS'RMGL'
p657
I4
sS'URADL'
p658
I2
sS'RICR'
p659
I2
sS'RIS'
p660
I1
sS'RMDVL'
p661
I3
sS'RIPL'
p662
I2
sS'RICL'
p663
I1
sS'SIADR'
p664
I1
sS'RIBL'
p665
I2
sS'RIH'
p666
I1
sS'AVER'
p667
I5
sS'RMHR'
p668
I4
sS'OLQDL'
p669
I1
ssS'URYVL'
p670
(dp671
S'AVBR'
p672
I1
sS'RIGL'
p673
I1
sS'RMDVR'
p674
I2
sS'SIBVR'
p675
I1
sS'AVAR'
p676
I1
sS'RIS'
p677
I1
sS'SMDVR'
p678
I4
sS'RMDDL'
p679
I4
sS'RIBL'
p680
I2
sS'RIH'
p681
I1
sS'IL1VL'
p682
I1
sS'AVER'
p683
I5
sS'RIAL'
p684
I1
ssS'PVQL'
p685
(dp686
S'HSNL'
p687
I2
sS'ASJL'
p688
I1
sS'RMGL'
p689
I1
sS'ADAL'
p690
I1
sS'AIAL'
p691
I3
sS'ASKL'
p692
I5
sS'PVQR'
p693
I2
ssS'FLPR'
p694
(dp695
S'AVBR'
p696
I1
sS'AIBR'
p697
I1
sS'AVEL'
p698
I4
sS'ADER'
p699
I1
sS'AVDR'
p700
I2
sS'AVJR'
p701
I1
sS'AVAR'
p702
I5
sS'VB1'
p703
I1
sS'AVAL'
p704
I12
sS'FLPL'
p705
I4
sS'DVA'
p706
I1
sS'AVER'
p707
I2
sS'AVDL'
p708
I1
sS'PVCL'
p709
I2
sS'AVBL'
p710
I5
ssS'AVJR'
p711
(dp712
S'AVBR'
p713
I1
sS'PVCR'
p714
I4
sS'AVDR'
p715
I3
sS'PVQR'
p716
I1
sS'AVAR'
p717
I1
sS'SABVL'
p718
I1
sS'AVAL'
p719
I1
sS'AVJL'
p720
I5
sS'AVER'
p721
I3
sS'AVDL'
p722
I1
sS'PVCL'
p723
I3
sS'AVBL'
p724
I3
ssS'URYDR'
p725
(dp726
S'AVEL'
p727
I2
sS'AVAR'
p728
I1
sS'RIBR'
p729
I1
sS'RMDDL'
p730
I3
sS'SMDDL'
p731
I4
sS'RIGR'
p732
I1
sS'AVER'
p733
I2
sS'RMDVR'
p734
I5
ssS'IL2VR'
p735
(dp736
S'RIAR'
p737
I2
sS'IL1VR'
p738
I6
sS'RMER'
p739
I2
sS'URXR'
p740
I1
sS'RMEV'
p741
I3
sS'RIPR'
p742
I15
sS'RMEL'
p743
I3
sS'RIH'
p744
I3
sS'OLQVR'
p745
I1
sS'URAVR'
p746
I4
ssS'IL2VL'
p747
(dp748
S'BAGR'
p749
I1
sS'URAVL'
p750
I3
sS'OLQVL'
p751
I1
sS'RMER'
p752
I4
sS'IL2L'
p753
I1
sS'RMEV'
p754
I1
sS'RIPL'
p755
I1
sS'RMEL'
p756
I1
sS'RIH'
p757
I2
sS'IL1VL'
p758
I7
sS'RIAL'
p759
I1
ssS'URYDL'
p760
(dp761
S'RIGL'
p762
I1
sS'RMDDR'
p763
I4
sS'RMDVL'
p764
I6
sS'SMDDL'
p765
I1
sS'AVAL'
p766
I1
sS'SMDDR'
p767
I1
sS'RIBL'
p768
I1
sS'AVER'
p769
I2
ssS'FLPL'
p770
(dp771
S'AVBR'
p772
I5
sS'AIBR'
p773
I2
sS'ADER'
p774
I2
sS'AVDR'
p775
I13
sS'FLPR'
p776
I3
sS'DVA'
p777
I1
sS'AVAR'
p778
I17
sS'AVAL'
p779
I15
sS'RIH'
p780
I1
sS'ADEL'
p781
I2
sS'AVDL'
p782
I7
sS'AIBL'
p783
I1
sS'AVBL'
p784
I4
ssS'AVJL'
p785
(dp786
S'AVBR'
p787
I4
sS'PVNR'
p788
I1
sS'PVCL'
p789
I2
sS'PVCR'
p790
I5
sS'AVEL'
p791
I1
sS'AVDR'
p792
I2
sS'AVJR'
p793
I4
sS'RIFR'
p794
I1
sS'AVAR'
p795
I1
sS'AVHL'
p796
I2
sS'PLMR'
p797
I2
sS'AVAL'
p798
I2
sS'RIS'
p799
I2
sS'AVDL'
p800
I1
sS'HSNR'
p801
I1
sS'AVFR'
p802
I1
sS'AVBL'
p803
I1
ssS'URBR'
p804
(dp805
S'AVBR'
p806
I1
sS'URXR'
p807
I4
sS'OLQDR'
p808
I1
sS'RMDR'
p809
I1
sS'ADAR'
p810
I1
sS'RMDL'
p811
I1
sS'RICR'
p812
I1
sS'RMFL'
p813
I1
sS'IL2R'
p814
I1
sS'OLQVR'
p815
I1
sS'SIAVR'
p816
I2
sS'SMBDL'
p817
I1
sS'IL1R'
p818
I3
sS'CEPDR'
p819
I1
ssS'RMDR'
p820
(dp821
S'RIAR'
p822
I7
sS'RIMR'
p823
I2
sS'MDL03'
p824
I1
sS'RMDVR'
p825
I1
sS'MDL05'
p826
I1
sS'RIS'
p827
I1
sS'MVL03'
p828
I1
sS'MDR05'
p829
I1
sS'AVKL'
p830
I1
sS'MVL05'
p831
I1
sS'RMDDL'
p832
I1
sS'RIAL'
p833
I3
sS'RMDL'
p834
I1
ssS'CEPDR'
p835
(dp836
S'OLQDR'
p837
I2
sS'RMHL'
p838
I4
sS'SMBDR'
p839
I1
sS'AVEL'
p840
I6
sS'RMDVR'
p841
I2
sS'IL1R'
p842
I1
sS'RIBR'
p843
I1
sS'RICR'
p844
I3
sS'RIS'
p845
I1
sS'SIADL'
p846
I1
sS'BDUR'
p847
I1
sS'RICL'
p848
I4
sS'RMGR'
p849
I1
sS'URADR'
p850
I1
sS'RIH'
p851
I1
sS'RMDDL'
p852
I1
sS'URBR'
p853
I2
sS'OLLR'
p854
I8
sS'RMHR'
p855
I1
sS'URYDR'
p856
I1
sS'IL1DR'
p857
I5
ssS'AVBR'
p858
(dp859
S'DVA'
p860
I1
sS'DB1'
p861
I3
sS'DB3'
p862
I1
sS'HSNR'
p863
I1
sS'DB5'
p864
I1
sS'DB4'
p865
I1
sS'DB7'
p866
I1
sS'DB6'
p867
I1
sS'DB2'
p868
I1
sS'VB11'
p869
I1
sS'VB10'
p870
I1
sS'DD1'
p871
I1
sS'RIBR'
p872
I1
sS'AVAR'
p873
I7
sS'VA8'
p874
I1
sS'AVAL'
p875
I6
sS'VA9'
p876
I2
sS'RIBL'
p877
I1
sS'AS10'
p878
I1
sS'RID'
p879
I2
sS'VA4'
p880
I1
sS'AS3'
p881
I1
sS'AS1'
p882
I1
sS'AS7'
p883
I3
sS'AS6'
p884
I2
sS'AS5'
p885
I1
sS'AS4'
p886
I1
sS'DA5'
p887
I1
sS'VD10'
p888
I1
sS'VD3'
p889
I1
sS'SIBVL'
p890
I1
sS'VB3'
p891
I1
sS'VB2'
p892
I1
sS'VB7'
p893
I2
sS'VB6'
p894
I2
sS'VB4'
p895
I1
sS'VB9'
p896
I6
sS'VB8'
p897
I3
sS'PVNL'
p898
I2
sS'AVBL'
p899
I4
ssS'VD13'
p900
(dp901
S'MVR24'
p902
I-9
sS'PVCL'
p903
I1
sS'MVR22'
p904
I-9
sS'MVR23'
p905
I-9
sS'MVR21'
p906
I-9
sS'AVAR'
p907
I2
sS'PVPL'
p908
I2
sS'MVL21'
p909
I-9
sS'MVL22'
p910
I-9
sS'MVL23'
p911
I-9
sS'VA12'
p912
I1
sS'PVCR'
p913
I1
ssS'ASJL'
p914
(dp915
S'ASJR'
p916
I1
sS'ASKL'
p917
I4
sS'HSNR'
p918
I1
sS'HSNL'
p919
I1
sS'PVQL'
p920
I14
ssS'ALML'
p921
(dp922
S'CEPDL'
p923
I3
sS'PVR'
p924
I1
sS'PVCR'
p925
I1
sS'AVEL'
p926
I1
sS'BDUL'
p927
I6
sS'RMGL'
p928
I1
sS'AVDR'
p929
I1
sS'RMDDR'
p930
I1
sS'AVM'
p931
I1
sS'CEPVL'
p932
I2
sS'SDQL'
p933
I1
sS'PVCL'
p934
I2
ssS'PVQR'
p935
(dp936
S'VD1'
p937
I1
sS'AWAR'
p938
I2
sS'AVFL'
p939
I1
sS'PVT'
p940
I1
sS'ASKR'
p941
I8
sS'ASER'
p942
I1
sS'ADAR'
p943
I1
sS'AIAR'
p944
I7
sS'PVQL'
p945
I1
sS'RIFR'
p946
I1
sS'DVC'
p947
I1
sS'AVL'
p948
I1
sS'DD1'
p949
I1
sS'HSNR'
p950
I1
sS'PVNL'
p951
I1
sS'AVFR'
p952
I1
sS'AVBL'
p953
I1
ssS'AWBR'
p954
(dp955
S'AVBR'
p956
I2
sS'RIAR'
p957
I1
sS'RIR'
p958
I2
sS'RICL'
p959
I1
sS'ADFR'
p960
I4
sS'AWBL'
p961
I1
sS'ASGR'
p962
I1
sS'RMGR'
p963
I1
sS'SMBVR'
p964
I1
sS'AIZR'
p965
I4
sS'ASHR'
p966
I2
sS'AUAR'
p967
I1
ssS'IL2L'
p968
(dp969
S'AVEL'
p970
I1
sS'OLQVL'
p971
I8
sS'RMER'
p972
I2
sS'RMEV'
p973
I2
sS'RICL'
p974
I1
sS'IL1L'
p975
I1
sS'URXL'
p976
I2
sS'RIH'
p977
I7
sS'RMDL'
p978
I3
sS'ADEL'
p979
I2
sS'RMDR'
p980
I1
sS'RMGL'
p981
I1
sS'OLQDL'
p982
I5
ssS'RMHR'
p983
(dp984
S'MDL01'
p985
I2
sS'RMGL'
p986
I1
sS'MDL03'
p987
I2
sS'MDL05'
p988
I2
sS'MVL01'
p989
I2
sS'RMGR'
p990
I1
sS'RMER'
p991
I1
ssS'AWBL'
p992
(dp993
S'AUAL'
p994
I1
sS'AIBR'
p995
I1
sS'AIZL'
p996
I9
sS'RMGL'
p997
I1
sS'AWBR'
p998
I1
sS'ADFL'
p999
I9
sS'SMBDL'
p1000
I1
sS'RIAL'
p1001
I3
sS'AVBL'
p1002
I1
ssS'IL2R'
p1003
(dp1004
S'OLQDR'
p1005
I2
sS'URBR'
p1006
I1
sS'ADER'
p1007
I1
sS'IL1VR'
p1008
I1
sS'IL1R'
p1009
I1
sS'RMDL'
p1010
I1
sS'RMEV'
p1011
I1
sS'RMEL'
p1012
I2
sS'RIH'
p1013
I6
sS'OLQVR'
p1014
I7
sS'URXR'
p1015
I1
sS'RMGR'
p1016
I1
sS'OLLR'
p1017
I1
ssS'ALMR'
p1018
(dp1019
S'PVCR'
p1020
I3
sS'CEPVR'
p1021
I1
sS'SIADL'
p1022
I1
sS'BDUR'
p1023
I5
sS'AVM'
p1024
I1
sS'RMDDL'
p1025
I1
sS'CEPDR'
p1026
I1
ssS'ASJR'
p1027
(dp1028
S'HSNR'
p1029
I1
sS'PVQR'
p1030
I13
sS'ASJL'
p1031
I1
sS'ASKR'
p1032
I4
ssS'DB4'
p1033
(dp1034
S'AVBR'
p1035
I1
sS'VB2'
p1036
I1
sS'DD3'
p1037
I3
sS'MDL16'
p1038
I2
sS'MDL14'
p1039
I2
sS'MDL13'
p1040
I2
sS'VD6'
p1041
I13
sS'MDR14'
p1042
I2
sS'MDR16'
p1043
I2
sS'MDR13'
p1044
I2
sS'VB4'
p1045
I1
sS'DB1'
p1046
I1
sS'DB3'
p1047
I1
sS'AVBL'
p1048
I1
ssS'PVDL'
p1049
(dp1050
S'PVCR'
p1051
I6
sS'AVAR'
p1052
I6
sS'DD5'
p1053
I1
sS'AVAL'
p1054
I6
sS'PVCL'
p1055
I1
sS'VD10'
p1056
I6
ssS'AVBL'
p1057
(dp1058
S'DVA'
p1059
I1
sS'DB3'
p1060
I1
sS'DB5'
p1061
I1
sS'DB4'
p1062
I1
sS'DB7'
p1063
I2
sS'DB6'
p1064
I2
sS'AVEL'
p1065
I1
sS'AQR'
p1066
I1
sS'VA10'
p1067
I1
sS'RIBR'
p1068
I1
sS'AVAR'
p1069
I7
sS'AVAL'
p1070
I7
sS'VC3'
p1071
I1
sS'RIBL'
p1072
I1
sS'AS10'
p1073
I1
sS'AVER'
p1074
I2
sS'RID'
p1075
I1
sS'VA7'
p1076
I1
sS'AS3'
p1077
I1
sS'AS7'
p1078
I2
sS'AS6'
p1079
I1
sS'AS5'
p1080
I1
sS'AS4'
p1081
I1
sS'AS9'
p1082
I1
sS'VA2'
p1083
I1
sS'AVBR'
p1084
I4
sS'PVNR'
p1085
I1
sS'SDQR'
p1086
I1
sS'VB11'
p1087
I2
sS'AVDR'
p1088
I2
sS'SIBVL'
p1089
I1
sS'VB10'
p1090
I2
sS'AVL'
p1091
I1
sS'VB2'
p1092
I4
sS'VB1'
p1093
I1
sS'VB7'
p1094
I2
sS'VB6'
p1095
I1
sS'VB5'
p1096
I1
sS'VB4'
p1097
I1
sS'AVDL'
p1098
I1
sS'VB9'
p1099
I1
sS'VB8'
p1100
I7
ssS'VD12'
p1101
(dp1102
S'MVR22'
p1103
I-5
sS'VB11'
p1104
I1
sS'VB10'
p1105
I1
sS'MVR19'
p1106
I-5
sS'MVL19'
p1107
I-5
sS'MVL21'
p1108
I-5
sS'VA11'
p1109
I3
sS'VA12'
p1110
I2
ssS'ASER'
p1111
(dp1112
S'AWAR'
p1113
I1
sS'AIBR'
p1114
I10
sS'AIYR'
p1115
I14
sS'AFDL'
p1116
I1
sS'AIAR'
p1117
I3
sS'AWCR'
p1118
I1
sS'AIAL'
p1119
I1
sS'AFDR'
p1120
I2
sS'AIBL'
p1121
I2
sS'AIYL'
p1122
I2
sS'AWCL'
p1123
I1
ssS'SAAVL'
p1124
(dp1125
S'ALNL'
p1126
I1
sS'RIMR'
p1127
I12
sS'RMDVL'
p1128
I2
sS'AVAL'
p1129
I16
sS'RMFR'
p1130
I2
sS'SMDDR'
p1131
I8
sS'SMBVR'
p1132
I3
sS'RIML'
p1133
I2
sS'OLLR'
p1134
I1
sS'AIBL'
p1135
I1
ssS'RMGL'
p1136
(dp1137
S'AIBR'
p1138
I1
sS'ADLL'
p1139
I1
sS'RMDR'
p1140
I3
sS'SMBVL'
p1141
I1
sS'RMDVL'
p1142
I3
sS'URXL'
p1143
I2
sS'RMDL'
p1144
I1
sS'ALNL'
p1145
I1
sS'RMHL'
p1146
I3
sS'AVEL'
p1147
I2
sS'MDL05'
p1148
I2
sS'AVAL'
p1149
I1
sS'ADAL'
p1150
I1
sS'MVL05'
p1151
I2
sS'ASKL'
p1152
I2
sS'RID'
p1153
I1
sS'RMHR'
p1154
I1
sS'CEPDL'
p1155
I1
sS'ASHL'
p1156
I2
sS'AVBR'
p1157
I2
sS'SIAVL'
p1158
I1
sS'ALML'
p1159
I1
sS'SIBVL'
p1160
I3
sS'IL2L'
p1161
I1
sS'AWBL'
p1162
I1
sS'SIBVR'
p1163
I1
ssS'SMDDL'
p1164
(dp1165
S'MDL08'
p1166
I1
sS'MVL02'
p1167
I1
sS'RIAR'
p1168
I1
sS'RIBR'
p1169
I1
sS'MDL04'
p1170
I1
sS'RIS'
p1171
I1
sS'MDL06'
p1172
I1
sS'SMDVR'
p1173
I2
sS'MDR06'
p1174
I1
sS'MDR07'
p1175
I1
sS'MDR04'
p1176
I1
sS'MDR05'
p1177
I1
sS'MDR02'
p1178
I1
sS'MDR03'
p1179
I1
sS'MVL04'
p1180
I1
sS'RMDDL'
p1181
I1
sS'RIAL'
p1182
I1
sS'RIBL'
p1183
I1
ssS'M5'
p1184
(dp1185
S'M5'
p1186
I4
sS'I5'
p1187
I1
sS'M2R'
p1188
I2
sS'I6'
p1189
I1
sS'M2L'
p1190
I2
sS'M1'
p1191
I2
ssS'M4'
p1192
(dp1193
S'M5'
p1194
I1
sS'NSMR'
p1195
I1
sS'I3'
p1196
I1
sS'I5'
p1197
I13
sS'M2R'
p1198
I1
sS'I6'
p1199
I3
sS'M2L'
p1200
I1
sS'M4'
p1201
I6
sS'NSML'
p1202
I1
ssS'RID'
p1203
(dp1204
S'AS2'
p1205
I1
sS'MDL21'
p1206
I-3
sS'VD5'
p1207
I1
sS'PDB'
p1208
I2
sS'AVBR'
p1209
I2
sS'DD3'
p1210
I3
sS'DD2'
p1211
I4
sS'DD1'
p1212
I4
sS'MDL14'
p1213
I-2
sS'ALA'
p1214
I1
sS'DA6'
p1215
I3
sS'DB1'
p1216
I1
sS'DA9'
p1217
I1
sS'VD13'
p1218
I1
sS'AVBL'
p1219
I1
ssS'M1'
p1220
(dp1221
S'I2R'
p1222
I2
sS'I2L'
p1223
I2
sS'I3'
p1224
I1
sS'I4'
p1225
I1
ssS'URXL'
p1226
(dp1227
S'ASHL'
p1228
I1
sS'AUAL'
p1229
I5
sS'RIGL'
p1230
I3
sS'AVEL'
p1231
I4
sS'AVJR'
p1232
I1
sS'RMGL'
p1233
I1
sS'RICL'
p1234
I1
sS'RIAL'
p1235
I8
sS'AVBL'
p1236
I1
ssS'ASEL'
p1237
(dp1238
S'AIBR'
p1239
I2
sS'AIYR'
p1240
I6
sS'AWCR'
p1241
I1
sS'RIAR'
p1242
I1
sS'ADFR'
p1243
I1
sS'AIAL'
p1244
I3
sS'AIBL'
p1245
I7
sS'AIYL'
p1246
I13
sS'AWCL'
p1247
I4
ssS'ALA'
p1248
(dp1249
S'AVEL'
p1250
I2
sS'RMDR'
p1251
I1
sS'AVER'
p1252
I1
sS'AVAL'
p1253
I1
sS'ADEL'
p1254
I1
sS'RID'
p1255
I1
ssS'SMBDL'
p1256
(dp1257
S'SAAVR'
p1258
I1
sS'AVKR'
p1259
I1
sS'AVAR'
p1260
I1
sS'MDR06'
p1261
I3
sS'MDR04'
p1262
I2
sS'AVKL'
p1263
I1
sS'MDR03'
p1264
I2
sS'MDR01'
p1265
I2
sS'MDR02'
p1266
I2
sS'SAADL'
p1267
I1
sS'RMED'
p1268
I3
sS'RIBL'
p1269
I1
ssS'VA11'
p1270
(dp1271
S'PVNR'
p1272
I2
sS'MVR20'
p1273
I5
sS'VB10'
p1274
I1
sS'MVR19'
p1275
I5
sS'AVAR'
p1276
I7
sS'DD6'
p1277
I10
sS'MVL20'
p1278
I5
sS'AVAL'
p1279
I1
sS'MVL19'
p1280
I5
sS'VD12'
p1281
I4
ssS'VA12'
p1282
(dp1283
S'PVCR'
p1284
I3
sS'PVCL'
p1285
I2
sS'VA11'
p1286
I1
sS'DB7'
p1287
I4
sS'VB11'
p1288
I1
sS'AVAR'
p1289
I1
sS'DD6'
p1290
I2
sS'AS11'
p1291
I2
sS'MVL21'
p1292
I5
sS'MVL22'
p1293
I5
sS'MVL23'
p1294
I5
sS'PHCL'
p1295
I1
sS'PHCR'
p1296
I1
sS'DA8'
p1297
I3
sS'DA9'
p1298
I5
sS'VD13'
p1299
I11
sS'VD12'
p1300
I3
sS'MVR24'
p1301
I5
sS'MVR22'
p1302
I5
sS'MVR23'
p1303
I5
sS'MVR21'
p1304
I5
sS'LUAL'
p1305
I2
ssS'ALNL'
p1306
(dp1307
S'SMDVL'
p1308
I1
sS'SMBDR'
p1309
I1
sS'SAAVL'
p1310
I3
ssS'HSNR'
p1311
(dp1312
S'AIBR'
p1313
I1
sS'HSNL'
p1314
I2
sS'AIBL'
p1315
I1
sS'RIFR'
p1316
I4
sS'SABVR'
p1317
I1
sS'VC2'
p1318
I3
sS'VC3'
p1319
I1
sS'VA6'
p1320
I1
sS'SABD'
p1321
I1
sS'AIZL'
p1322
I1
sS'AS5'
p1323
I1
sS'DA5'
p1324
I1
sS'DA6'
p1325
I1
sS'MVULVA'
p1326
I6
sS'AVJL'
p1327
I1
sS'AIZR'
p1328
I1
sS'ASHL'
p1329
I2
sS'PVNR'
p1330
I2
sS'AVFL'
p1331
I1
sS'VD4'
p1332
I2
sS'AVDR'
p1333
I1
sS'BDUR'
p1334
I1
sS'AVL'
p1335
I1
sS'AWBL'
p1336
I1
sS'RMGR'
p1337
I1
sS'PVQR'
p1338
I1
ssS'RMDDR'
p1339
(dp1340
S'URYDL'
p1341
I1
sS'MDL01'
p1342
I1
sS'MDL02'
p1343
I1
sS'MDL03'
p1344
I2
sS'MDL04'
p1345
I1
sS'MVR01'
p1346
I1
sS'MVR02'
p1347
I1
sS'MDR04'
p1348
I1
sS'SMDDR'
p1349
I1
sS'RMDVL'
p1350
I12
sS'OLQVR'
p1351
I1
sS'RMDVR'
p1352
I1
sS'SAADR'
p1353
I1
ssS'PLNL'
p1354
(dp1355
S'SAADL'
p1356
I5
sS'SMBVL'
p1357
I6
ssS'VB2'
p1358
(dp1359
S'DB4'
p1360
I1
sS'MVR12'
p1361
I4
sS'MVR10'
p1362
I4
sS'DD2'
p1363
I1
sS'DD1'
p1364
I20
sS'VC2'
p1365
I1
sS'MVL07'
p1366
I4
sS'VA2'
p1367
I1
sS'MVL09'
p1368
I4
sS'AVBR'
p1369
I1
sS'VD3'
p1370
I3
sS'VD2'
p1371
I9
sS'MVR09'
p1372
I4
sS'RIGL'
p1373
I1
sS'MVR07'
p1374
I4
sS'VB3'
p1375
I1
sS'MVL10'
p1376
I4
sS'VB1'
p1377
I4
sS'MVL12'
p1378
I4
sS'VB7'
p1379
I2
sS'VB5'
p1380
I1
sS'AVBL'
p1381
I3
ssS'DD3'
p1382
(dp1383
S'DD2'
p1384
I2
sS'MDL14'
p1385
I-7
sS'MDL13'
p1386
I-9
sS'MDL11'
p1387
I-7
sS'DD4'
p1388
I1
sS'MDR14'
p1389
I-7
sS'MDR11'
p1390
I-7
sS'MDR13'
p1391
I-9
ssS'DD2'
p1392
(dp1393
S'MDL09'
p1394
I-6
sS'VD3'
p1395
I1
sS'VD4'
p1396
I3
sS'DD3'
p1397
I2
sS'DD1'
p1398
I1
sS'MDR12'
p1399
I-6
sS'MDL12'
p1400
I-6
sS'MDL11'
p1401
I-7
sS'MDR11'
p1402
I-7
sS'DA3'
p1403
I1
sS'MDR09'
p1404
I-6
ssS'ADAR'
p1405
(dp1406
S'AVBR'
p1407
I5
sS'AIBR'
p1408
I1
sS'RIMR'
p1409
I5
sS'AVEL'
p1410
I1
sS'RIVR'
p1411
I1
sS'RICL'
p1412
I1
sS'ADFR'
p1413
I1
sS'RIPR'
p1414
I1
sS'AVAL'
p1415
I1
sS'SMDVL'
p1416
I2
sS'ADAL'
p1417
I1
sS'AVJL'
p1418
I3
sS'AVDL'
p1419
I2
sS'PVQR'
p1420
I1
sS'AIBL'
p1421
I1
sS'ASHR'
p1422
I1
sS'AVBL'
p1423
I1
ssS'DD6'
p1424
(dp1425
S'MDL22'
p1426
I-7
sS'MDL23'
p1427
I-7
sS'MDL21'
p1428
I-7
sS'MDL19'
p1429
I-7
sS'MDL24'
p1430
I-7
sS'MDR24'
p1431
I-7
sS'MDR19'
p1432
I-7
sS'MDR21'
p1433
I-7
sS'MDR22'
p1434
I-7
sS'MDR23'
p1435
I-7
ssS'DD5'
p1436
(dp1437
S'MDL20'
p1438
I-7
sS'MDL18'
p1439
I-7
sS'MDL17'
p1440
I-7
sS'VD10'
p1441
I1
sS'VD9'
p1442
I1
sS'MDR17'
p1443
I-7
sS'VB8'
p1444
I1
sS'MDR20'
p1445
I-7
sS'MDR18'
p1446
I-7
ssS'ADLR'
p1447
(dp1448
S'AVBR'
p1449
I2
sS'AIBR'
p1450
I10
sS'ADLL'
p1451
I1
sS'AWCR'
p1452
I3
sS'AVDR'
p1453
I2
sS'ASER'
p1454
I1
sS'AIAR'
p1455
I10
sS'AVAR'
p1456
I2
sS'PVCL'
p1457
I1
sS'RICR'
p1458
I1
sS'RICL'
p1459
I1
sS'AVJR'
p1460
I1
sS'AVDL'
p1461
I5
sS'OLLR'
p1462
I1
sS'ASHR'
p1463
I3
sS'AVBL'
p1464
I1
ssS'M2L'
p1465
(dp1466
S'I3'
p1467
I3
sS'MI'
p1468
I4
sS'M2R'
p1469
I1
sS'I1R'
p1470
I3
sS'M5'
p1471
I1
sS'I1L'
p1472
I3
ssS'SMDDR'
p1473
(dp1474
S'MDL08'
p1475
I1
sS'VD1'
p1476
I1
sS'RIAR'
p1477
I1
sS'RMDDR'
p1478
I1
sS'RIBR'
p1479
I1
sS'MDL04'
p1480
I1
sS'MDL05'
p1481
I1
sS'MDL06'
p1482
I1
sS'RIS'
p1483
I1
sS'MDR06'
p1484
I1
sS'MDR04'
p1485
I1
sS'MVR02'
p1486
I1
sS'RIAL'
p1487
I2
ssS'ADAL'
p1488
(dp1489
S'ASHL'
p1490
I1
sS'AVBR'
p1491
I7
sS'AIBR'
p1492
I2
sS'AVEL'
p1493
I1
sS'AVDR'
p1494
I2
sS'FLPR'
p1495
I1
sS'AVJR'
p1496
I5
sS'ADAR'
p1497
I2
sS'AVAR'
p1498
I2
sS'SMDVR'
p1499
I2
sS'RICR'
p1500
I1
sS'PVQL'
p1501
I1
sS'ADFL'
p1502
I1
sS'RICL'
p1503
I1
sS'RIML'
p1504
I3
sS'AVDL'
p1505
I1
sS'RIPL'
p1506
I1
sS'AIBL'
p1507
I1
sS'AVBL'
p1508
I4
ssS'DD4'
p1509
(dp1510
S'DD3'
p1511
I1
sS'MDL16'
p1512
I-7
sS'MDL15'
p1513
I-7
sS'MDL13'
p1514
I-7
sS'MDR15'
p1515
I-7
sS'MDR16'
p1516
I-7
sS'MDR13'
p1517
I-7
sS'VD8'
p1518
I1
sS'VC3'
p1519
I1
ssS'URXR'
p1520
(dp1521
S'AVBR'
p1522
I2
sS'RIAR'
p1523
I3
sS'SIAVR'
p1524
I1
sS'RIPR'
p1525
I3
sS'RMDR'
p1526
I1
sS'RIGR'
p1527
I2
sS'IL2R'
p1528
I1
sS'RMGR'
p1529
I2
sS'OLQVR'
p1530
I1
sS'AVER'
p1531
I2
sS'AUAR'
p1532
I4
sS'AVBL'
p1533
I1
ssS'PLNR'
p1534
(dp1535
S'SAADR'
p1536
I4
sS'SMBVR'
p1537
I6
ssS'PVDR'
p1538
(dp1539
S'PVCR'
p1540
I10
sS'AVAR'
p1541
I9
sS'PVDL'
p1542
I1
sS'DVA'
p1543
I3
sS'AVAL'
p1544
I6
sS'VA9'
p1545
I1
sS'PVCL'
p1546
I13
ssS'RIH'
p1547
(dp1548
S'CEPVR'
p1549
I2
sS'CEPVL'
p1550
I2
sS'RIPL'
p1551
I4
sS'RIPR'
p1552
I6
sS'OLQVR'
p1553
I6
sS'OLQDR'
p1554
I2
sS'RIBR'
p1555
I4
sS'URYVR'
p1556
I1
sS'RIBL'
p1557
I5
sS'OLQVL'
p1558
I1
sS'AUAR'
p1559
I1
sS'OLQDL'
p1560
I4
sS'CEPDL'
p1561
I2
sS'AIZL'
p1562
I4
sS'RMER'
p1563
I2
sS'RMEV'
p1564
I1
sS'FLPL'
p1565
I1
sS'AIZR'
p1566
I4
sS'CEPDR'
p1567
I2
sS'BAGR'
p1568
I1
sS'RIAR'
p1569
I8
sS'IL2L'
p1570
I2
sS'ADFR'
p1571
I1
sS'IL2R'
p1572
I1
sS'RIAL'
p1573
I10
ssS'PHAL'
p1574
(dp1575
S'PVQL'
p1576
I2
sS'AVFL'
p1577
I3
sS'AVDR'
p1578
I1
sS'PHBR'
p1579
I5
sS'DVA'
p1580
I2
sS'AVHL'
p1581
I1
sS'PHAR'
p1582
I2
sS'AVHR'
p1583
I1
sS'PHBL'
p1584
I5
sS'AVG'
p1585
I5
ssS'SABD'
p1586
(dp1587
S'VA2'
p1588
I4
sS'VA3'
p1589
I2
sS'AVAL'
p1590
I4
sS'VA4'
p1591
I1
ssS'ALNR'
p1592
(dp1593
S'ADER'
p1594
I1
sS'SAAVR'
p1595
I2
sS'SMBDL'
p1596
I2
sS'SMDVL'
p1597
I1
sS'SMDDR'
p1598
I1
sS'RMHR'
p1599
I1
ssS'AUAL'
p1600
(dp1601
S'AINR'
p1602
I1
sS'AVEL'
p1603
I3
sS'AVDR'
p1604
I1
sS'AVAL'
p1605
I3
sS'AWBL'
p1606
I1
sS'RIBL'
p1607
I9
sS'RIAL'
p1608
I5
sS'AUAR'
p1609
I1
ssS'SABVR'
p1610
(dp1611
S'AVAL'
p1612
I1
sS'AVAR'
p1613
I1
sS'DA1'
p1614
I3
ssS'RIMR'
p1615
(dp1616
S'AIYR'
p1617
I1
sS'RMDR'
p1618
I1
sS'RMFL'
p1619
I1
sS'AVKL'
p1620
I1
sS'RMDL'
p1621
I1
sS'AIBL'
p1622
I1
sS'AVEL'
p1623
I3
sS'ADAR'
p1624
I1
sS'RIBR'
p1625
I1
sS'AVAR'
p1626
I1
sS'MDL05'
p1627
I1
sS'MDL07'
p1628
I1
sS'AVAL'
p1629
I5
sS'RMFR'
p1630
I1
sS'MVL07'
p1631
I1
sS'MVL05'
p1632
I1
sS'AVER'
p1633
I2
sS'SAAVL'
p1634
I3
sS'SAAVR'
p1635
I3
sS'AVJL'
p1636
I1
sS'AVBR'
p1637
I5
sS'SMDDL'
p1638
I2
sS'SMDDR'
p1639
I4
sS'RIS'
p1640
I2
sS'AVBL'
p1641
I2
ssS'RMER'
p1642
(dp1643
S'MDL01'
p1644
I-7
sS'MDL03'
p1645
I-7
sS'MVL01'
p1646
I-7
sS'RMEV'
p1647
I1
ssS'AIAR'
p1648
(dp1649
S'AWAR'
p1650
I2
sS'AIBR'
p1651
I14
sS'RIFR'
p1652
I2
sS'ASER'
p1653
I1
sS'ADAR'
p1654
I1
sS'AWCR'
p1655
I3
sS'ADFR'
p1656
I1
sS'ASGR'
p1657
I1
sS'AIAL'
p1658
I1
sS'ASIR'
p1659
I2
sS'AIZR'
p1660
I1
sS'ADLR'
p1661
I2
sS'AWCL'
p1662
I1
ssS'RMEV'
p1663
(dp1664
S'IL1DL'
p1665
I1
sS'AVEL'
p1666
I1
sS'MDL02'
p1667
I-3
sS'MDL04'
p1668
I-3
sS'MDL06'
p1669
I-3
sS'MDR04'
p1670
I-3
sS'SMDDR'
p1671
I1
sS'MDR02'
p1672
I-3
sS'AVER'
p1673
I1
sS'RMEL'
p1674
I1
sS'RMED'
p1675
I2
sS'RMER'
p1676
I1
sS'IL1DR'
p1677
I1
ssS'RMEL'
p1678
(dp1679
S'RIGL'
p1680
I1
sS'MVR01'
p1681
I-5
sS'RMEV'
p1682
I1
sS'MVR03'
p1683
I-5
sS'MDR03'
p1684
I-5
sS'MDR01'
p1685
I-5
ssS'AIAL'
p1686
(dp1687
S'ASHL'
p1688
I1
sS'AWCR'
p1689
I1
sS'ASIL'
p1690
I2
sS'AIZL'
p1691
I1
sS'HSNL'
p1692
I1
sS'ASER'
p1693
I3
sS'RMGL'
p1694
I1
sS'AIAR'
p1695
I1
sS'ASGL'
p1696
I1
sS'AIML'
p1697
I2
sS'ADAL'
p1698
I1
sS'RIFL'
p1699
I1
sS'ASKL'
p1700
I3
sS'AIBL'
p1701
I10
sS'AWAL'
p1702
I1
ssS'RIML'
p1703
(dp1704
S'AVBR'
p1705
I3
sS'AIBR'
p1706
I1
sS'SMDVL'
p1707
I1
sS'AVEL'
p1708
I2
sS'RMFR'
p1709
I1
sS'MVR05'
p1710
I2
sS'SAADR'
p1711
I1
sS'AVAR'
p1712
I2
sS'RIS'
p1713
I1
sS'SAAVL'
p1714
I3
sS'SAAVR'
p1715
I2
sS'AVAL'
p1716
I1
sS'MDR05'
p1717
I2
sS'SMDDR'
p1718
I5
sS'RIBL'
p1719
I1
sS'RMDL'
p1720
I1
sS'AVER'
p1721
I3
sS'RMDR'
p1722
I1
sS'AIYL'
p1723
I1
sS'AVBL'
p1724
I2
ssS'RMED'
p1725
(dp1726
S'RMEV'
p1727
I2
sS'MVR04'
p1728
I-4
sS'RIBR'
p1729
I1
sS'MVR02'
p1730
I-4
sS'RIPL'
p1731
I1
sS'MVL02'
p1732
I-4
sS'RIPR'
p1733
I1
sS'MVL06'
p1734
I-4
sS'RIBL'
p1735
I1
sS'MVL04'
p1736
I-4
sS'IL1VL'
p1737
I1
ssS'VB9'
p1738
(dp1739
S'AVBR'
p1740
I6
sS'VB8'
p1741
I3
sS'MVR17'
p1742
I6
sS'MVR20'
p1743
I6
sS'AVAR'
p1744
I4
sS'VA8'
p1745
I3
sS'DD5'
p1746
I8
sS'DVB'
p1747
I1
sS'AVAL'
p1748
I5
sS'VA9'
p1749
I4
sS'MVL17'
p1750
I6
sS'MVL20'
p1751
I6
sS'PVCL'
p1752
I2
sS'VD10'
p1753
I5
sS'AVBL'
p1754
I1
ssS'AUAR'
p1755
(dp1756
S'AUAL'
p1757
I1
sS'RIAR'
p1758
I6
sS'AIYR'
p1759
I1
sS'AWBR'
p1760
I1
sS'RIBR'
p1761
I13
sS'AVAR'
p1762
I1
sS'AVER'
p1763
I4
sS'URXR'
p1764
I1
sS'AINL'
p1765
I1
ssS'VD1'
p1766
(dp1767
S'VD2'
p1768
I7
sS'MVR08'
p1769
I-5
sS'RIGL'
p1770
I2
sS'MVR05'
p1771
I-5
sS'DD1'
p1772
I5
sS'DVC'
p1773
I5
sS'VC1'
p1774
I1
sS'SMDDR'
p1775
I1
sS'MVL05'
p1776
I-5
sS'VA2'
p1777
I1
sS'RIFL'
p1778
I1
sS'MVL08'
p1779
I-5
sS'VA1'
p1780
I2
ssS'VC1'
p1781
(dp1782
S'VD1'
p1783
I5
sS'VD3'
p1784
I1
sS'MVULVA'
p1785
I6
sS'VD5'
p1786
I5
sS'PVT'
p1787
I2
sS'VD6'
p1788
I1
sS'DD3'
p1789
I6
sS'DD2'
p1790
I6
sS'DD1'
p1791
I7
sS'DVC'
p1792
I1
sS'AVL'
p1793
I2
sS'VC2'
p1794
I9
sS'VC3'
p1795
I3
sS'VD2'
p1796
I1
sS'VD4'
p1797
I2
ssS'PVNR'
p1798
(dp1799
S'VD6'
p1800
I1
sS'PVCL'
p1801
I1
sS'HSNR'
p1802
I2
sS'PVT'
p1803
I2
sS'AVEL'
p1804
I3
sS'DD3'
p1805
I1
sS'MVL13'
p1806
I2
sS'VC2'
p1807
I1
sS'VC3'
p1808
I1
sS'AVJR'
p1809
I1
sS'AVJL'
p1810
I4
sS'VD12'
p1811
I1
sS'AVBR'
p1812
I2
sS'AVAL'
p1813
I2
sS'VD7'
p1814
I1
sS'AVDR'
p1815
I1
sS'PVWL'
p1816
I2
sS'BDUR'
p1817
I2
sS'AVL'
p1818
I2
sS'BDUL'
p1819
I1
sS'PQR'
p1820
I2
sS'MVL12'
p1821
I1
sS'PVNL'
p1822
I1
sS'AVBL'
p1823
I1
ssS'PLML'
p1824
(dp1825
S'PHCL'
p1826
I1
sS'PVCL'
p1827
I1
sS'HSNL'
p1828
I1
sS'LUAL'
p1829
I1
ssS'VD5'
p1830
(dp1831
S'VD4'
p1832
I1
sS'MVR14'
p1833
I-17
sS'VD6'
p1834
I2
sS'AVAR'
p1835
I1
sS'PVPR'
p1836
I1
sS'MVL14'
p1837
I-17
sS'VB4'
p1838
I2
sS'VA5'
p1839
I2
ssS'RICL'
p1840
(dp1841
S'ASHL'
p1842
I2
sS'SMDDR'
p1843
I3
sS'RIMR'
p1844
I3
sS'AWBR'
p1845
I1
sS'ADAR'
p1846
I1
sS'AVAR'
p1847
I6
sS'SMDDL'
p1848
I3
sS'SMDVR'
p1849
I1
sS'AVAL'
p1850
I5
sS'RMFR'
p1851
I1
sS'AVKL'
p1852
I1
sS'RIVR'
p1853
I1
sS'RIML'
p1854
I1
sS'SMBDL'
p1855
I2
sS'AVKR'
p1856
I2
ssS'AINR'
p1857
(dp1858
S'BAGR'
p1859
I3
sS'AUAL'
p1860
I1
sS'ASER'
p1861
I1
sS'AFDL'
p1862
I4
sS'AFDR'
p1863
I1
sS'ASGL'
p1864
I1
sS'RIBL'
p1865
I2
sS'AIAL'
p1866
I2
sS'ASEL'
p1867
I1
sS'AINL'
p1868
I2
sS'RID'
p1869
I1
sS'AIBL'
p1870
I2
sS'AUAR'
p1871
I1
ssS'PVWL'
p1872
(dp1873
S'PVWR'
p1874
I1
sS'PVT'
p1875
I2
sS'PVCR'
p1876
I2
sS'VA12'
p1877
I1
sS'AVJL'
p1878
I1
ssS'VD9'
p1879
(dp1880
S'MVR17'
p1881
I-10
sS'MVR18'
p1882
I-10
sS'VD10'
p1883
I5
sS'MVL17'
p1884
I-10
sS'MVL18'
p1885
I-10
sS'PDER'
p1886
I1
ssS'SIBVL'
p1887
(dp1888
S'AVBR'
p1889
I1
sS'SIBDL'
p1890
I1
sS'SDQR'
p1891
I1
sS'RIBL'
p1892
I1
sS'AVBL'
p1893
I1
ssS'SAADR'
p1894
(dp1895
S'RIMR'
p1896
I5
sS'AIBR'
p1897
I1
sS'OLLL'
p1898
I1
sS'RMDDR'
p1899
I1
sS'RMGL'
p1900
I1
sS'AVAR'
p1901
I3
sS'RMFL'
p1902
I1
sS'RIML'
p1903
I4
ssS'RIFR'
p1904
(dp1905
S'HSNR'
p1906
I1
sS'AVBR'
p1907
I17
sS'AVFL'
p1908
I1
sS'PVCR'
p1909
I1
sS'RIMR'
p1910
I4
sS'AVJR'
p1911
I2
sS'PVCL'
p1912
I1
sS'AVHL'
p1913
I1
sS'PVPR'
p1914
I4
sS'RIPR'
p1915
I1
sS'AVJL'
p1916
I1
sS'AVG'
p1917
I1
sS'ASHR'
p1918
I2
sS'AVBL'
p1919
I1
ssS'MI'
p1920
(dp1921
S'M3R'
p1922
I1
sS'I3'
p1923
I1
sS'I5'
p1924
I2
sS'I4'
p1925
I1
sS'M2R'
p1926
I2
sS'I1R'
p1927
I1
sS'M2L'
p1928
I2
sS'I1L'
p1929
I1
sS'M3L'
p1930
I1
sS'M1'
p1931
I1
sS'MCR'
p1932
I2
sS'MCL'
p1933
I2
ssS'AVHL'
p1934
(dp1935
S'VD1'
p1936
I1
sS'AVBR'
p1937
I1
sS'AVFL'
p1938
I2
sS'SMBVR'
p1939
I1
sS'RIMR'
p1940
I1
sS'PVQL'
p1941
I1
sS'PHBR'
p1942
I1
sS'RIR'
p1943
I3
sS'AWBR'
p1944
I1
sS'SMBDR'
p1945
I1
sS'ADFR'
p1946
I3
sS'PVPR'
p1947
I2
sS'AVHR'
p1948
I2
sS'AVJL'
p1949
I1
sS'AVDL'
p1950
I1
sS'PVQR'
p1951
I2
sS'AVFR'
p1952
I5
sS'AVBL'
p1953
I1
ssS'ADFR'
p1954
(dp1955
S'RIAR'
p1956
I16
sS'AIYR'
p1957
I1
sS'RIR'
p1958
I3
sS'ADAR'
p1959
I2
sS'AIAR'
p1960
I1
sS'AWBR'
p1961
I1
sS'SMBDR'
p1962
I1
sS'PVPR'
p1963
I1
sS'SMBVR'
p1964
I2
sS'URXR'
p1965
I1
sS'RIGR'
p1966
I3
sS'AIZR'
p1967
I8
sS'ASHR'
p1968
I1
sS'AUAR'
p1969
I4
ssS'AVL'
p1970
(dp1971
S'SABVL'
p1972
I4
sS'MVR10'
p1973
I-5
sS'SABVR'
p1974
I3
sS'AVEL'
p1975
I1
sS'PVWL'
p1976
I1
sS'DD1'
p1977
I1
sS'DD6'
p1978
I2
sS'DVC'
p1979
I9
sS'DVB'
p1980
I1
sS'PVPR'
p1981
I1
sS'MVL10'
p1982
I-5
sS'DA2'
p1983
I1
sS'HSNR'
p1984
I1
sS'PVM'
p1985
I1
sS'AVFR'
p1986
I1
sS'SABD'
p1987
I5
sS'VD12'
p1988
I4
ssS'AVM'
p1989
(dp1990
S'AVBR'
p1991
I6
sS'PVR'
p1992
I3
sS'PVCR'
p1993
I5
sS'ADER'
p1994
I1
sS'ALML'
p1995
I1
sS'AVJR'
p1996
I1
sS'BDUR'
p1997
I2
sS'BDUL'
p1998
I3
sS'DA1'
p1999
I1
sS'ALMR'
p2000
I1
sS'SIBVL'
p2001
I1
sS'VA1'
p2002
I2
sS'AVDL'
p2003
I2
sS'RID'
p2004
I1
sS'PVCL'
p2005
I4
sS'PVNL'
p2006
I1
sS'AVBL'
p2007
I6
ssS'AVHR'
p2008
(dp2009
S'AVBR'
p2010
I1
sS'ADLL'
p2011
I1
sS'RIGL'
p2012
I1
sS'AVDR'
p2013
I1
sS'AVJR'
p2014
I4
sS'AQR'
p2015
I2
sS'RIR'
p2016
I4
sS'AVHL'
p2017
I2
sS'PVPL'
p2018
I3
sS'AVFR'
p2019
I2
sS'SMBVL'
p2020
I1
sS'AVFL'
p2021
I1
sS'SMBDL'
p2022
I1
sS'PVNL'
p2023
I1
sS'ADLR'
p2024
I2
sS'AVBL'
p2025
I2
ssS'SAADL'
p2026
(dp2027
S'RIMR'
p2028
I6
sS'AVAL'
p2029
I6
sS'SMBDL'
p2030
I1
sS'RMGR'
p2031
I1
sS'RIML'
p2032
I3
sS'AIBL'
p2033
I1
ssS'SIBVR'
p2034
(dp2035
S'SIBDR'
p2036
I1
sS'RIBR'
p2037
I1
sS'RMHL'
p2038
I1
sS'RIBL'
p2039
I1
ssS'AINL'
p2040
(dp2041
S'RIBR'
p2042
I2
sS'AINR'
p2043
I2
sS'AFDR'
p2044
I5
sS'ASGR'
p2045
I2
sS'RIBL'
p2046
I1
sS'ASEL'
p2047
I3
sS'ADEL'
p2048
I1
sS'BAGL'
p2049
I3
sS'AUAR'
p2050
I2
ssS'PVWR'
p2051
(dp2052
S'PVT'
p2053
I1
sS'AVAR'
p2054
I1
sS'PVCR'
p2055
I2
sS'VA12'
p2056
I1
sS'AVDR'
p2057
I1
ssS'AVG'
p2058
(dp2059
S'AVBR'
p2060
I2
sS'PVNR'
p2061
I1
sS'AVFL'
p2062
I1
sS'PVPR'
p2063
I1
sS'PVT'
p2064
I1
sS'AVEL'
p2065
I1
sS'AVDR'
p2066
I1
sS'PVQR'
p2067
I1
sS'AVAR'
p2068
I3
sS'RIFR'
p2069
I1
sS'AVL'
p2070
I1
sS'PHAL'
p2071
I2
sS'AVJL'
p2072
I1
sS'AVER'
p2073
I1
sS'RIFL'
p2074
I1
sS'PVCL'
p2075
I1
sS'DA8'
p2076
I1
sS'VA11'
p2077
I1
sS'AVBL'
p2078
I1
ssS'PVNL'
p2079
(dp2080
S'AVBR'
p2081
I3
sS'PVNR'
p2082
I5
sS'MVL09'
p2083
I3
sS'PVT'
p2084
I1
sS'AVEL'
p2085
I1
sS'AVDR'
p2086
I3
sS'AVJR'
p2087
I5
sS'DD1'
p2088
I2
sS'PVWL'
p2089
I1
sS'PVCL'
p2090
I1
sS'PQR'
p2091
I1
sS'BDUR'
p2092
I2
sS'AVL'
p2093
I2
sS'BDUL'
p2094
I1
sS'AVAL'
p2095
I2
sS'AVJL'
p2096
I5
sS'AVDL'
p2097
I3
sS'AVG'
p2098
I1
sS'RIFL'
p2099
I1
sS'AVFR'
p2100
I1
sS'PVQR'
p2101
I1
ssS'PLMR'
p2102
(dp2103
S'LUAR'
p2104
I1
sS'PDEL'
p2105
I2
sS'AS6'
p2106
I1
sS'AVDR'
p2107
I4
sS'DVA'
p2108
I5
sS'AVAR'
p2109
I1
sS'PVCL'
p2110
I2
sS'AVAL'
p2111
I4
sS'PVR'
p2112
I2
sS'AVDL'
p2113
I1
sS'HSNR'
p2114
I1
sS'PDER'
p2115
I3
sS'PVCR'
p2116
I1
ssS'VC2'
p2117
(dp2118
S'VD1'
p2119
I2
sS'MVULVA'
p2120
I10
sS'VD5'
p2121
I5
sS'PVCR'
p2122
I1
sS'VD6'
p2123
I1
sS'DD3'
p2124
I9
sS'DD2'
p2125
I4
sS'DD1'
p2126
I6
sS'DVC'
p2127
I1
sS'VC1'
p2128
I10
sS'VC3'
p2129
I6
sS'PVT'
p2130
I2
sS'VD4'
p2131
I5
sS'VD2'
p2132
I2
sS'DB4'
p2133
I1
sS'PVQR'
p2134
I1
ssS'SIBDL'
p2135
(dp2136
S'SIBVL'
p2137
I1
sS'RIBL'
p2138
I1
ssS'IL1DL'
p2139
(dp2140
S'PVR'
p2141
I1
sS'OLLL'
p2142
I1
sS'RMDDR'
p2143
I1
sS'MDL01'
p2144
I1
sS'MDL02'
p2145
I1
sS'MDL04'
p2146
I2
sS'RMEV'
p2147
I1
sS'RIPL'
p2148
I2
sS'RMDVL'
p2149
I4
sS'URYDL'
p2150
I1
sS'IL1L'
p2151
I1
sS'RIH'
p2152
I1
sS'IL1DR'
p2153
I1
ssS'RIBR'
p2154
(dp2155
S'SIBDR'
p2156
I1
sS'SMBDR'
p2157
I1
sS'SMDVL'
p2158
I2
sS'OLQVR'
p2159
I1
sS'AIBL'
p2160
I1
sS'OLQDR'
p2161
I2
sS'PVT'
p2162
I1
sS'AVEL'
p2163
I3
sS'RIBR'
p2164
I1
sS'AVAR'
p2165
I2
sS'SIADR'
p2166
I1
sS'RIBL'
p2167
I3
sS'RIH'
p2168
I1
sS'AVER'
p2169
I1
sS'RIGR'
p2170
I2
sS'AIZR'
p2171
I1
sS'AVBR'
p2172
I1
sS'RIAR'
p2173
I2
sS'SMDDL'
p2174
I2
sS'SMDDR'
p2175
I1
sS'SIBVR'
p2176
I1
sS'SIAVR'
p2177
I1
sS'BAGL'
p2178
I1
sS'AVBL'
p2179
I1
ssS'OLLL'
p2180
(dp2181
S'CEPDL'
p2182
I3
sS'URYDL'
p2183
I1
sS'RIGL'
p2184
I1
sS'IL1DL'
p2185
I1
sS'CEPVL'
p2186
I4
sS'SMDDL'
p2187
I3
sS'SMDVR'
p2188
I4
sS'RMDDL'
p2189
I7
sS'RMDVL'
p2190
I1
sS'SMDDR'
p2191
I4
sS'RMEL'
p2192
I2
sS'RIBL'
p2193
I8
sS'IL1VL'
p2194
I2
sS'AVER'
p2195
I21
sS'OLLR'
p2196
I2
sS'RMDL'
p2197
I2
ssS'RIR'
p2198
(dp2199
S'BAGR'
p2200
I2
sS'AUAL'
p2201
I1
sS'RIAR'
p2202
I1
sS'AIZL'
p2203
I3
sS'HSNL'
p2204
I1
sS'RIGL'
p2205
I1
sS'DVA'
p2206
I2
sS'URXR'
p2207
I1
sS'AWBR'
p2208
I1
sS'PVPL'
p2209
I1
sS'URXL'
p2210
I5
sS'AFDR'
p2211
I1
sS'AIZR'
p2212
I5
sS'RIAL'
p2213
I5
sS'BAGL'
p2214
I1
ssS'IL1R'
p2215
(dp2216
S'RMHL'
p2217
I1
sS'RMDDR'
p2218
I2
sS'AVEL'
p2219
I1
sS'URXR'
p2220
I2
sS'IL1VR'
p2221
I1
sS'RMDL'
p2222
I4
sS'RMDVR'
p2223
I4
sS'MVR01'
p2224
I3
sS'MVR03'
p2225
I3
sS'RMDDL'
p2226
I3
sS'RMDVL'
p2227
I1
sS'RMEL'
p2228
I2
sS'MDR03'
p2229
I3
sS'MDR01'
p2230
I3
sS'AVER'
p2231
I1
sS'RMDR'
p2232
I2
sS'IL1DR'
p2233
I2
ssS'IL1VL'
p2234
(dp2235
S'IL1VR'
p2236
I1
sS'URYVL'
p2237
I1
sS'RIPL'
p2238
I4
sS'MVL02'
p2239
I4
sS'MVL01'
p2240
I5
sS'IL1L'
p2241
I2
sS'RMDDL'
p2242
I5
sS'RMED'
p2243
I1
ssS'DVA'
p2244
(dp2245
S'PDEL'
p2246
I3
sS'PVCR'
p2247
I1
sS'RIR'
p2248
I3
sS'SMBDR'
p2249
I2
sS'SMBDL'
p2250
I3
sS'DB1'
p2251
I1
sS'DB3'
p2252
I2
sS'DB2'
p2253
I1
sS'DB5'
p2254
I1
sS'DB4'
p2255
I1
sS'DB7'
p2256
I1
sS'DB6'
p2257
I2
sS'PVCL'
p2258
I1
sS'AVEL'
p2259
I9
sS'AQR'
p2260
I4
sS'AVAR'
p2261
I1
sS'AVAL'
p2262
I3
sS'VA12'
p2263
I1
sS'AVER'
p2264
I5
sS'SABD'
p2265
I1
sS'AUAL'
p2266
I1
sS'AIZL'
p2267
I3
sS'RIMR'
p2268
I1
sS'SAAVL'
p2269
I1
sS'SAAVR'
p2270
I1
sS'VA2'
p2271
I1
sS'PVR'
p2272
I2
sS'AUAR'
p2273
I1
sS'AVBR'
p2274
I1
sS'RIAR'
p2275
I1
sS'VB11'
p2276
I2
sS'SAADR'
p2277
I1
sS'SMBVL'
p2278
I3
sS'VB1'
p2279
I1
sS'SMBVR'
p2280
I2
sS'RIAL'
p2281
I1
sS'AVBL'
p2282
I2
ssS'SMBDR'
p2283
(dp2284
S'ALNL'
p2285
I1
sS'RIBR'
p2286
I1
sS'AVKR'
p2287
I2
sS'MDL03'
p2288
I1
sS'MDL04'
p2289
I1
sS'MDR04'
p2290
I1
sS'MDL06'
p2291
I2
sS'AVAL'
p2292
I1
sS'AVKL'
p2293
I1
sS'SAAVL'
p2294
I3
sS'RMED'
p2295
I4
sS'MDL02'
p2296
I1
sS'MDR08'
p2297
I1
ssS'DVC'
p2298
(dp2299
S'VD1'
p2300
I5
sS'PVPR'
p2301
I13
sS'AIBR'
p2302
I5
sS'PVT'
p2303
I1
sS'RIGL'
p2304
I5
sS'VA9'
p2305
I1
sS'AVKR'
p2306
I1
sS'RIBR'
p2307
I1
sS'AVAR'
p2308
I7
sS'RMFL'
p2309
I2
sS'PVPL'
p2310
I2
sS'AVL'
p2311
I9
sS'AVAL'
p2312
I5
sS'RMFR'
p2313
I4
sS'AVKL'
p2314
I2
sS'RIBL'
p2315
I1
sS'RIGR'
p2316
I5
sS'AIBL'
p2317
I2
sS'VD10'
p2318
I4
sS'AVBL'
p2319
I1
ssS'DVB'
p2320
(dp2321
S'PHCL'
p2322
I1
sS'AS9'
p2323
I7
sS'DD6'
p2324
I3
sS'DVC'
p2325
I3
sS'AVL'
p2326
I1
sS'VA9'
p2327
I1
sS'PVPL'
p2328
I1
sS'MANAL'
p2329
I-5
sS'VB9'
p2330
I1
sS'DA8'
p2331
I2
sS'PDA'
p2332
I1
ssS'RMDDL'
p2333
(dp2334
S'OLQVL'
p2335
I1
sS'RMDL'
p2336
I1
sS'RMDVR'
p2337
I7
sS'MVR01'
p2338
I1
sS'RMDVL'
p2339
I1
sS'SMDDL'
p2340
I1
sS'MDR04'
p2341
I1
sS'MDR02'
p2342
I1
sS'MDR03'
p2343
I1
sS'MDR01'
p2344
I1
sS'MDR08'
p2345
I2
ssS'SIADL'
p2346
(dp2347
S'RIBL'
p2348
I1
ssS'PDEL'
p2349
(dp2350
S'PVR'
p2351
I2
sS'PVCR'
p2352
I1
sS'VD11'
p2353
I1
sS'DVA'
p2354
I24
sS'VA9'
p2355
I1
sS'AVKL'
p2356
I6
sS'PVM'
p2357
I1
sS'PDER'
p2358
I3
ssS'IL1L'
p2359
(dp2360
S'IL1DL'
p2361
I2
sS'RMDR'
p2362
I3
sS'MDL01'
p2363
I3
sS'RMER'
p2364
I1
sS'MDL03'
p2365
I3
sS'RMDDL'
p2366
I5
sS'MDL05'
p2367
I4
sS'MVL03'
p2368
I3
sS'RMDVL'
p2369
I4
sS'MVL01'
p2370
I3
sS'IL1VL'
p2371
I1
sS'AVER'
p2372
I2
sS'RMDVR'
p2373
I2
sS'RMDL'
p2374
I1
ssS'VD4'
p2375
(dp2376
S'PVPR'
p2377
I1
sS'MVR11'
p2378
I-9
sS'VD5'
p2379
I1
sS'MVR12'
p2380
I-9
sS'DD2'
p2381
I2
sS'VD3'
p2382
I1
sS'MVL11'
p2383
I-9
sS'MVL12'
p2384
I-9
ssS'RIVR'
p2385
(dp2386
S'SMDVR'
p2387
I4
sS'AIBR'
p2388
I1
sS'RMDR'
p2389
I1
sS'SIAVL'
p2390
I2
sS'MVR04'
p2391
I-2
sS'RIVL'
p2392
I2
sS'MVR06'
p2393
I-2
sS'RMDVR'
p2394
I1
sS'RIAR'
p2395
I1
sS'RMEV'
p2396
I1
sS'SMDDL'
p2397
I2
sS'SDQR'
p2398
I2
sS'MVL06'
p2399
I-2
sS'MVL05'
p2400
I-2
sS'RMDDL'
p2401
I1
sS'SAADL'
p2402
I2
sS'MVL08'
p2403
I-2
sS'RIAL'
p2404
I2
ssS'I1R'
p2405
(dp2406
S'RIPR'
p2407
I1
sS'I1L'
p2408
I1
sS'I3'
p2409
I1
sS'I5'
p2410
I1
sS'RIPL'
p2411
I1
ssS'VC3'
p2412
(dp2413
S'DVC'
p2414
I1
sS'HSNR'
p2415
I1
sS'DD3'
p2416
I5
sS'DD2'
p2417
I4
sS'DD1'
p2418
I2
sS'DD4'
p2419
I13
sS'PVPR'
p2420
I1
sS'VC1'
p2421
I4
sS'VC2'
p2422
I3
sS'VC4'
p2423
I1
sS'VC5'
p2424
I2
sS'VD3'
p2425
I1
sS'VD2'
p2426
I1
sS'VD1'
p2427
I1
sS'PVNR'
p2428
I1
sS'MVULVA'
p2429
I11
sS'VD5'
p2430
I4
sS'VD4'
p2431
I2
sS'VD7'
p2432
I5
sS'VD6'
p2433
I4
sS'AVL'
p2434
I1
sS'PVQR'
p2435
I4
ssS'IL1DR'
p2436
(dp2437
S'IL1DL'
p2438
I1
sS'IL1R'
p2439
I1
sS'RMDVR'
p2440
I5
sS'RMEV'
p2441
I1
sS'RIPR'
p2442
I5
sS'MDR02'
p2443
I3
sS'MDR01'
p2444
I4
sS'OLLR'
p2445
I1
ssS'OLQDR'
p2446
(dp2447
S'RMDVR'
p2448
I1
sS'RIBR'
p2449
I2
sS'RICR'
p2450
I1
sS'RMDDL'
p2451
I3
sS'RICL'
p2452
I1
sS'RIH'
p2453
I1
sS'SIBVR'
p2454
I2
sS'RIGR'
p2455
I1
sS'URBR'
p2456
I1
sS'RMHR'
p2457
I1
sS'CEPDR'
p2458
I2
ssS'PVR'
p2459
(dp2460
S'IL1DL'
p2461
I1
sS'PDEL'
p2462
I1
sS'PVCR'
p2463
I1
sS'AVJL'
p2464
I3
sS'DVA'
p2465
I3
sS'RIPL'
p2466
I3
sS'RIPR'
p2467
I3
sS'AVKL'
p2468
I1
sS'DB3'
p2469
I1
sS'DB2'
p2470
I1
sS'PDER'
p2471
I1
sS'IL1DR'
p2472
I1
sS'ADAL'
p2473
I1
sS'AVJR'
p2474
I2
sS'SABD'
p2475
I1
sS'URADL'
p2476
I1
sS'AS6'
p2477
I1
sS'IL1VR'
p2478
I1
sS'IL1VL'
p2479
I1
sS'DA9'
p2480
I1
sS'LUAR'
p2481
I1
sS'AVBR'
p2482
I4
sS'ALML'
p2483
I1
sS'PLMR'
p2484
I2
sS'LUAL'
p2485
I1
sS'AVBL'
p2486
I4
ssS'PVT'
p2487
(dp2488
S'RMEV'
p2489
I1
sS'AIBR'
p2490
I5
sS'RIGL'
p2491
I2
sS'AVKR'
p2492
I7
sS'RIBR'
p2493
I1
sS'RMFL'
p2494
I2
sS'DVC'
p2495
I2
sS'SMBDR'
p2496
I1
sS'AVL'
p2497
I2
sS'RMFR'
p2498
I3
sS'AVKL'
p2499
I9
sS'PVPL'
p2500
I1
sS'RIH'
p2501
I1
sS'RIGR'
p2502
I3
sS'AIBL'
p2503
I3
sS'RIBL'
p2504
I1
ssS'AVEL'
p2505
(dp2506
S'AS1'
p2507
I1
sS'VD2'
p2508
I1
sS'PVCR'
p2509
I1
sS'RIMR'
p2510
I3
sS'SABVL'
p2511
I7
sS'RMDVR'
p2512
I1
sS'AVAR'
p2513
I7
sS'VD3'
p2514
I1
sS'RMEV'
p2515
I1
sS'SABVR'
p2516
I3
sS'DA4'
p2517
I1
sS'RIML'
p2518
I2
sS'AVAL'
p2519
I12
sS'DA1'
p2520
I5
sS'DA2'
p2521
I1
sS'DA3'
p2522
I3
sS'AVER'
p2523
I1
sS'VA3'
p2524
I3
sS'VA1'
p2525
I5
sS'SABD'
p2526
I6
sS'PVT'
p2527
I1
ssS'I1L'
p2528
(dp2529
S'RIPR'
p2530
I1
sS'I3'
p2531
I1
sS'RIPL'
p2532
I1
sS'I5'
p2533
I1
sS'I1R'
p2534
I1
ssS'IL2DL'
p2535
(dp2536
S'AUAL'
p2537
I1
sS'IL1DL'
p2538
I7
sS'RMER'
p2539
I3
sS'URADL'
p2540
I3
sS'RIPL'
p2541
I10
sS'RMEL'
p2542
I4
sS'RIBL'
p2543
I1
sS'OLQDL'
p2544
I2
ssS'ASGL'
p2545
(dp2546
S'AIZL'
p2547
I1
sS'AIBL'
p2548
I3
sS'AIAL'
p2549
I9
sS'AINR'
p2550
I2
sS'ASKL'
p2551
I1
ssS'AIMR'
p2552
(dp2553
S'OLQDR'
p2554
I1
sS'PVNR'
p2555
I1
sS'AVFL'
p2556
I1
sS'HSNL'
p2557
I1
sS'AVDR'
p2558
I1
sS'ASKR'
p2559
I3
sS'AIAR'
p2560
I5
sS'RIFR'
p2561
I1
sS'ASGR'
p2562
I2
sS'RMGR'
p2563
I1
sS'ASJR'
p2564
I2
sS'HSNR'
p2565
I2
sS'AVFR'
p2566
I1
ssS'AIML'
p2567
(dp2568
S'AVBR'
p2569
I2
sS'AVFL'
p2570
I4
sS'AVDR'
p2571
I1
sS'ALML'
p2572
I1
sS'SMBVL'
p2573
I1
sS'SIBDR'
p2574
I1
sS'AVJL'
p2575
I1
sS'ASGL'
p2576
I2
sS'AVHL'
p2577
I2
sS'PVQL'
p2578
I1
sS'AVHR'
p2579
I1
sS'AIAL'
p2580
I5
sS'AVDL'
p2581
I1
sS'AVER'
p2582
I1
sS'ASKL'
p2583
I2
sS'RIFL'
p2584
I1
sS'AVFR'
p2585
I1
ssS'ASGR'
p2586
(dp2587
S'AINL'
p2588
I1
sS'AIBR'
p2589
I2
sS'AIAR'
p2590
I10
sS'AIZR'
p2591
I1
sS'AIYR'
p2592
I1
ssS'IL2DR'
p2593
(dp2594
S'RMER'
p2595
I2
sS'RICR'
p2596
I1
sS'RMEV'
p2597
I1
sS'RIPR'
p2598
I11
sS'RMEL'
p2599
I2
sS'URADR'
p2600
I3
sS'CEPDR'
p2601
I1
sS'RMED'
p2602
I1
sS'IL1DR'
p2603
I7
ssS'OLQVL'
p2604
(dp2605
S'ADLL'
p2606
I1
sS'RIGL'
p2607
I1
sS'URBL'
p2608
I1
sS'CEPVL'
p2609
I1
sS'RMDVR'
p2610
I4
sS'RIPL'
p2611
I1
sS'IL2VL'
p2612
I1
sS'RICL'
p2613
I1
sS'RIBL'
p2614
I1
sS'RIH'
p2615
I1
sS'IL1VL'
p2616
I1
sS'RMDDL'
p2617
I1
sS'SIBDL'
p2618
I3
ssS'AVER'
p2619
(dp2620
S'RMDVR'
p2621
I1
sS'RMDVL'
p2622
I1
sS'DB3'
p2623
I1
sS'AVEL'
p2624
I1
sS'AVAR'
p2625
I16
sS'SABVR'
p2626
I3
sS'SABVL'
p2627
I3
sS'AVAL'
p2628
I7
sS'VA2'
p2629
I1
sS'VA3'
p2630
I2
sS'VA1'
p2631
I1
sS'SABD'
p2632
I2
sS'VA5'
p2633
I1
sS'AS3'
p2634
I1
sS'AS2'
p2635
I2
sS'AS1'
p2636
I3
sS'RIMR'
p2637
I2
sS'RMEV'
p2638
I1
sS'DA1'
p2639
I5
sS'DA2'
p2640
I3
sS'DA3'
p2641
I1
sS'RIML'
p2642
I3
sS'AVDR'
p2643
I1
sS'VA4'
p2644
I1
ssS'RIFL'
p2645
(dp2646
S'VD1'
p2647
I1
sS'AVBR'
p2648
I1
sS'ALML'
p2649
I2
sS'AVJR'
p2650
I2
sS'PVPL'
p2651
I3
sS'AVHR'
p2652
I1
sS'RIML'
p2653
I4
sS'AVG'
p2654
I1
sS'AVBL'
p2655
I10
ssS'PVM'
p2656
(dp2657
S'PDEL'
p2658
I1
sS'DVA'
p2659
I3
sS'AVL'
p2660
I1
sS'AVM'
p2661
I1
sS'PVR'
p2662
I1
sS'AVKL'
p2663
I11
sS'PVCL'
p2664
I2
sS'PDER'
p2665
I1
ssS'OLQDL'
p2666
(dp2667
S'CEPDL'
p2668
I1
sS'RIGL'
p2669
I1
sS'RMDDR'
p2670
I4
sS'URBL'
p2671
I1
sS'SIBVL'
p2672
I3
sS'RICR'
p2673
I1
sS'RMDVL'
p2674
I1
sS'RIBL'
p2675
I2
ssS'AS3'
p2676
(dp2677
S'MDL09'
p2678
I3
sS'VD3'
p2679
I15
sS'VD2'
p2680
I1
sS'DD1'
p2681
I1
sS'AVAR'
p2682
I1
sS'MDL10'
p2683
I3
sS'AVAL'
p2684
I2
sS'MDR10'
p2685
I3
sS'DA2'
p2686
I1
sS'DA3'
p2687
I1
sS'VA5'
p2688
I2
sS'MDR09'
p2689
I3
ssS'AS2'
p2690
(dp2691
S'MDL08'
p2692
I2
sS'VD2'
p2693
I10
sS'DD1'
p2694
I1
sS'MDL07'
p2695
I3
sS'MDR07'
p2696
I3
sS'VA4'
p2697
I2
sS'DA2'
p2698
I1
sS'DB1'
p2699
I1
sS'MDR08'
p2700
I3
ssS'AS1'
p2701
(dp2702
S'MDL08'
p2703
I3
sS'VD1'
p2704
I5
sS'VD2'
p2705
I1
sS'AVAR'
p2706
I2
sS'MDL05'
p2707
I3
sS'AVAL'
p2708
I3
sS'MDR05'
p2709
I3
sS'DA1'
p2710
I2
sS'VA3'
p2711
I1
sS'MDR08'
p2712
I4
ssS'URADL'
p2713
(dp2714
S'IL1DL'
p2715
I2
sS'MDL02'
p2716
I2
sS'MDL03'
p2717
I2
sS'MDL04'
p2718
I2
sS'RIPL'
p2719
I3
sS'RMEL'
p2720
I1
ssS'AS7'
p2721
(dp2722
S'AVBR'
p2723
I2
sS'MDL16'
p2724
I3
sS'AVAR'
p2725
I5
sS'MDL13'
p2726
I2
sS'AVAL'
p2727
I6
sS'MDR16'
p2728
I3
sS'MDR13'
p2729
I2
sS'AVBL'
p2730
I2
ssS'AS6'
p2731
(dp2732
S'AVBR'
p2733
I1
sS'MDR14'
p2734
I2
sS'MDL13'
p2735
I3
sS'MDL14'
p2736
I2
sS'AVAR'
p2737
I1
sS'VA8'
p2738
I1
sS'VD6'
p2739
I13
sS'DA5'
p2740
I2
sS'AVAL'
p2741
I1
sS'MDR13'
p2742
I3
ssS'AS5'
p2743
(dp2744
S'VD5'
p2745
I9
sS'DD2'
p2746
I1
sS'MDL14'
p2747
I3
sS'AVAR'
p2748
I1
sS'MDL11'
p2749
I2
sS'MDR14'
p2750
I3
sS'AVAL'
p2751
I1
sS'MDR11'
p2752
I2
sS'VA7'
p2753
I1
ssS'AS4'
p2754
(dp2755
S'VD4'
p2756
I11
sS'AS5'
p2757
I1
sS'DA3'
p2758
I1
sS'MDL12'
p2759
I2
sS'MDL11'
p2760
I2
sS'MDR11'
p2761
I3
sS'MDR12'
p2762
I2
ssS'AS9'
p2763
(dp2764
S'MDL20'
p2765
I3
sS'MDL17'
p2766
I2
sS'AVAR'
p2767
I2
sS'AVAL'
p2768
I4
sS'DVB'
p2769
I7
sS'MDR17'
p2770
I2
sS'MDR20'
p2771
I3
ssS'AS8'
p2772
(dp2773
S'MDL18'
p2774
I3
sS'MDL15'
p2775
I2
sS'AVAR'
p2776
I3
sS'MDR15'
p2777
I2
sS'AVAL'
p2778
I4
sS'MDR18'
p2779
I3
ssS'SMBVL'
p2780
(dp2781
S'SAAVR'
p2782
I2
sS'PLNL'
p2783
I1
sS'RMEV'
p2784
I5
sS'MVL02'
p2785
I1
sS'MVL03'
p2786
I1
sS'MVL01'
p2787
I1
sS'MVL06'
p2788
I1
sS'MVL04'
p2789
I1
sS'MVL05'
p2790
I1
sS'SAADL'
p2791
I3
sS'MVL08'
p2792
I1
ssS'VD3'
p2793
(dp2794
S'MVR12'
p2795
I-7
sS'VD2'
p2796
I2
sS'MVR09'
p2797
I-7
sS'PVPL'
p2798
I1
sS'VB2'
p2799
I2
sS'MVL12'
p2800
I-9
sS'VA3'
p2801
I2
sS'MVL09'
p2802
I-7
sS'VD4'
p2803
I1
ssS'SMDVR'
p2804
(dp2805
S'RIAR'
p2806
I5
sS'MVR07'
p2807
I1
sS'RMDVR'
p2808
I1
sS'SMDDL'
p2809
I2
sS'MVL02'
p2810
I1
sS'MVL03'
p2811
I1
sS'VB1'
p2812
I1
sS'SMDVL'
p2813
I1
sS'RIBL'
p2814
I2
sS'MVL04'
p2815
I1
sS'RIVR'
p2816
I2
sS'RMDDL'
p2817
I1
sS'RIAL'
p2818
I7
ssS'VD2'
p2819
(dp2820
S'VD1'
p2821
I7
sS'AS1'
p2822
I1
sS'MVR10'
p2823
I-7
sS'VB2'
p2824
I3
sS'DD1'
p2825
I3
sS'MVR07'
p2826
I-7
sS'VD3'
p2827
I2
sS'MVL10'
p2828
I-7
sS'MVL07'
p2829
I-7
sS'VA2'
p2830
I9
ssS'LUAR'
p2831
(dp2832
S'PVR'
p2833
I2
sS'PVCR'
p2834
I3
sS'AVDR'
p2835
I3
sS'AVJR'
p2836
I1
sS'PVWL'
p2837
I1
sS'AVAR'
p2838
I7
sS'PQR'
p2839
I1
sS'AVAL'
p2840
I3
sS'AVDL'
p2841
I1
sS'PLMR'
p2842
I1
ssS'VA3'
p2843
(dp2844
S'MVR12'
p2845
I5
sS'AS1'
p2846
I1
sS'MVR10'
p2847
I5
sS'MVR09'
p2848
I5
sS'DD2'
p2849
I11
sS'DD1'
p2850
I18
sS'AVAR'
p2851
I2
sS'VD3'
p2852
I3
sS'MVL10'
p2853
I5
sS'AVAL'
p2854
I1
sS'MVL12'
p2855
I5
sS'VA4'
p2856
I1
sS'VD2'
p2857
I3
sS'MVL09'
p2858
I5
sS'SABD'
p2859
I2
ssS'URYVR'
p2860
(dp2861
S'SIBDR'
p2862
I1
sS'RIAR'
p2863
I1
sS'RMDDR'
p2864
I6
sS'AVEL'
p2865
I6
sS'IL1VR'
p2866
I1
sS'RIBR'
p2867
I1
sS'RMDVL'
p2868
I4
sS'AVAL'
p2869
I2
sS'SMDVL'
p2870
I3
sS'SIBVL'
p2871
I1
sS'RIGR'
p2872
I1
ssS'RIPL'
p2873
(dp2874
S'OLQDR'
p2875
I1
sS'RMED'
p2876
I1
sS'OLQDL'
p2877
I1
ssS'VD11'
p2878
(dp2879
S'MVR20'
p2880
I-9
sS'VB10'
p2881
I1
sS'MVR19'
p2882
I-9
sS'AVAR'
p2883
I2
sS'MVL20'
p2884
I-9
sS'MVL19'
p2885
I-9
sS'VA11'
p2886
I1
ssS'PDB'
p2887
(dp2888
S'MVL22'
p2889
I1
sS'VD13'
p2890
I2
sS'RID'
p2891
I2
sS'AS11'
p2892
I2
sS'MVR21'
p2893
I1
ssS'PDA'
p2894
(dp2895
S'PVNR'
p2896
I1
sS'MDL21'
p2897
I2
sS'DD6'
p2898
I1
sS'AS11'
p2899
I1
sS'DA9'
p2900
I1
sS'VD13'
p2901
I3
ssS'SMBVR'
p2902
(dp2903
S'MVR04'
p2904
I1
sS'SAADR'
p2905
I4
sS'AVKR'
p2906
I1
sS'MVR07'
p2907
I1
sS'MVR01'
p2908
I1
sS'MVR02'
p2909
I1
sS'MVR03'
p2910
I1
sS'AVKL'
p2911
I1
sS'RMEV'
p2912
I3
sS'SAAVL'
p2913
I3
sS'MVR06'
p2914
I1
ssS'BAGR'
p2915
(dp2916
S'RIGL'
p2917
I1
sS'AVEL'
p2918
I2
sS'RIR'
p2919
I1
sS'AVAL'
p2920
I1
sS'RIBL'
p2921
I4
sS'RIAL'
p2922
I5
sS'AIYL'
p2923
I1
sS'BAGL'
p2924
I1
ssS'AVFL'
p2925
(dp2926
S'AVBR'
p2927
I2
sS'HSNL'
p2928
I1
sS'MVL12'
p2929
I1
sS'MVL11'
p2930
I1
sS'AVJR'
p2931
I1
sS'PVQR'
p2932
I2
sS'PVQL'
p2933
I1
sS'AVHL'
p2934
I4
sS'PDER'
p2935
I1
sS'AVL'
p2936
I1
sS'VB1'
p2937
I1
sS'AVHR'
p2938
I7
sS'AVJL'
p2939
I1
sS'AVG'
p2940
I1
sS'PVNL'
p2941
I2
sS'AVFR'
p2942
I30
sS'AVBL'
p2943
I1
ssS'SDQR'
p2944
(dp2945
S'AVBR'
p2946
I4
sS'ADLL'
p2947
I1
sS'SIBVL'
p2948
I1
sS'RICR'
p2949
I1
sS'RIVR'
p2950
I2
sS'DVA'
p2951
I3
sS'AVAL'
p2952
I3
sS'RMHL'
p2953
I2
sS'RIVL'
p2954
I2
sS'SDQL'
p2955
I1
sS'AIBL'
p2956
I2
sS'RMHR'
p2957
I1
sS'AVBL'
p2958
I7
ssS'PQR'
p2959
(dp2960
S'LUAR'
p2961
I1
sS'AVDR'
p2962
I6
sS'AVAR'
p2963
I11
sS'PVPL'
p2964
I4
sS'AVAL'
p2965
I8
sS'AVDL'
p2966
I7
sS'AVG'
p2967
I1
sS'PVNL'
p2968
I1
ssS'RIGL'
p2969
(dp2970
S'AIBR'
p2971
I3
sS'OLLL'
p2972
I1
sS'OLQVL'
p2973
I1
sS'AVKR'
p2974
I2
sS'DVC'
p2975
I1
sS'AVKL'
p2976
I1
sS'ALNL'
p2977
I1
sS'AVEL'
p2978
I1
sS'AQR'
p2979
I2
sS'RIR'
p2980
I2
sS'URYVL'
p2981
I1
sS'RIBL'
p2982
I2
sS'AVER'
p2983
I1
sS'RMHR'
p2984
I3
sS'OLQDL'
p2985
I1
sS'VD1'
p2986
I2
sS'URYDL'
p2987
I1
sS'RMEL'
p2988
I2
sS'AIZR'
p2989
I1
sS'BAGR'
p2990
I2
sS'VB2'
p2991
I1
sS'RIGR'
p2992
I3
ssS'AFDL'
p2993
(dp2994
S'AIBL'
p2995
I1
sS'AIYL'
p2996
I7
sS'AINR'
p2997
I1
sS'AFDR'
p2998
I1
ssS'I2R'
p2999
(dp3000
S'I1L'
p3001
I1
sS'M1'
p3002
I4
sS'I1R'
p3003
I1
ssS'VD6'
p3004
(dp3005
S'MVR13'
p3006
I-7
sS'VD5'
p3007
I2
sS'MVR16'
p3008
I-7
sS'VD7'
p3009
I1
sS'MVR14'
p3010
I-7
sS'MVL13'
p3011
I-7
sS'AVAL'
p3012
I1
sS'MVL14'
p3013
I-7
sS'VB5'
p3014
I2
sS'MVL16'
p3015
I-7
sS'VA6'
p3016
I1
ssS'RMHL'
p3017
(dp3018
S'RMDR'
p3019
I1
sS'RMGL'
p3020
I3
sS'MDR01'
p3021
I2
sS'MVR01'
p3022
I2
sS'MDR03'
p3023
I3
sS'SIBVR'
p3024
I1
ssS'BDUR'
p3025
(dp3026
S'PVNR'
p3027
I1
sS'PVCL'
p3028
I1
sS'ADER'
p3029
I1
sS'AVHL'
p3030
I1
sS'AVAL'
p3031
I3
sS'URADR'
p3032
I1
sS'ALMR'
p3033
I1
sS'AVJL'
p3034
I2
sS'SDQL'
p3035
I1
sS'HSNR'
p3036
I4
sS'PVNL'
p3037
I2
ssS'VB3'
p3038
(dp3039
S'AVBR'
p3040
I1
sS'MVR11'
p3041
I6
sS'MVR12'
p3042
I6
sS'DD2'
p3043
I37
sS'MVR14'
p3044
I6
sS'MVL11'
p3045
I6
sS'VB2'
p3046
I1
sS'MVL12'
p3047
I6
sS'MVL14'
p3048
I6
sS'DB1'
p3049
I1
sS'VA7'
p3050
I1
sS'VA4'
p3051
I1
ssS'BDUL'
p3052
(dp3053
S'PVNR'
p3054
I2
sS'HSNL'
p3055
I1
sS'AVJR'
p3056
I1
sS'URADL'
p3057
I1
sS'AVHL'
p3058
I1
sS'SAADL'
p3059
I1
sS'ADEL'
p3060
I3
sS'PVNL'
p3061
I2
ssS'VB1'
p3062
(dp3063
S'VD1'
p3064
I3
sS'AIBR'
p3065
I1
sS'VA1'
p3066
I3
sS'MVR08'
p3067
I1
sS'DD1'
p3068
I1
sS'MVR07'
p3069
I1
sS'DVA'
p3070
I1
sS'RMFL'
p3071
I2
sS'SMDVR'
p3072
I1
sS'VB2'
p3073
I4
sS'VD2'
p3074
I1
sS'AVKL'
p3075
I4
sS'MVL07'
p3076
I1
sS'VA3'
p3077
I1
sS'RIML'
p3078
I2
sS'SAADL'
p3079
I9
sS'MVL08'
p3080
I1
sS'DB2'
p3081
I2
sS'SAADR'
p3082
I2
sS'SABD'
p3083
I1
sS'AVBL'
p3084
I1
ssS'SMDVL'
p3085
(dp3086
S'SMDVR'
p3087
I1
sS'RIAR'
p3088
I8
sS'PVR'
p3089
I1
sS'RMDDR'
p3090
I1
sS'MVR04'
p3091
I1
sS'RIVL'
p3092
I2
sS'MVR06'
p3093
I1
sS'RIBR'
p3094
I2
sS'RIS'
p3095
I1
sS'MVR02'
p3096
I1
sS'MVR03'
p3097
I1
sS'MVL03'
p3098
I1
sS'RMDVL'
p3099
I1
sS'SMDDR'
p3100
I4
sS'MVL06'
p3101
I1
sS'RIAL'
p3102
I3
ssS'I2L'
p3103
(dp3104
S'I1L'
p3105
I1
sS'M1'
p3106
I4
sS'I1R'
p3107
I1
ssS'RMFL'
p3108
(dp3109
S'PVT'
p3110
I1
sS'RMDR'
p3111
I3
sS'AVKR'
p3112
I4
sS'MVR01'
p3113
I1
sS'MVR03'
p3114
I1
sS'AVKL'
p3115
I4
sS'MDR03'
p3116
I1
sS'URBR'
p3117
I1
sS'RIGR'
p3118
I1
sS'RMGR'
p3119
I1
ssS'VB5'
p3120
(dp3121
S'MVR13'
p3122
I6
sS'MVR14'
p3123
I6
sS'DD3'
p3124
I27
sS'VB2'
p3125
I1
sS'MVL13'
p3126
I6
sS'VB6'
p3127
I8
sS'MVL14'
p3128
I6
sS'VB4'
p3129
I1
sS'AVBL'
p3130
I1
ssS'AFDR'
p3131
(dp3132
S'AFDL'
p3133
I1
sS'AIBR'
p3134
I1
sS'AIYR'
p3135
I13
sS'ASER'
p3136
I1
ssS'RIGR'
p3137
(dp3138
S'OLQDR'
p3139
I1
sS'RMHL'
p3140
I4
sS'RIGL'
p3141
I3
sS'AQR'
p3142
I1
sS'AVKR'
p3143
I2
sS'RIBR'
p3144
I2
sS'RIR'
p3145
I1
sS'URYDR'
p3146
I1
sS'URYVR'
p3147
I1
sS'AVKL'
p3148
I4
sS'OLQVR'
p3149
I1
sS'AVER'
p3150
I2
sS'OLLR'
p3151
I1
sS'AIBL'
p3152
I3
sS'BAGL'
p3153
I1
sS'ALNR'
p3154
I1
ssS'SDQL'
p3155
(dp3156
S'SDQR'
p3157
I1
sS'AVEL'
p3158
I1
sS'ALML'
p3159
I2
sS'AVAR'
p3160
I3
sS'RICR'
p3161
I1
sS'RIS'
p3162
I3
sS'RMFL'
p3163
I1
sS'AVAL'
p3164
I1
sS'FLPL'
p3165
I1
ssS'VB8'
p3166
(dp3167
S'AVBR'
p3168
I3
sS'MVR17'
p3169
I5
sS'MVR20'
p3170
I5
sS'VD9'
p3171
I10
sS'MVR18'
p3172
I5
sS'DD5'
p3173
I30
sS'VA8'
p3174
I3
sS'VA9'
p3175
I1
sS'MVL17'
p3176
I5
sS'MVL20'
p3177
I5
sS'MVL18'
p3178
I5
sS'VB9'
p3179
I6
sS'VD10'
p3180
I1
sS'AVBL'
p3181
I7
ssS'AVFR'
p3182
(dp3183
S'AVBR'
p3184
I5
sS'AVFL'
p3185
I24
sS'ASJL'
p3186
I1
sS'MVR14'
p3187
I2
sS'AVJR'
p3188
I1
sS'AVHL'
p3189
I4
sS'PVQL'
p3190
I1
sS'AVHR'
p3191
I2
sS'VC4'
p3192
I1
sS'MVL14'
p3193
I2
sS'AVJL'
p3194
I1
sS'ASKL'
p3195
I1
sS'HSNR'
p3196
I1
sS'VD11'
p3197
I1
sS'AVBL'
p3198
I1
ssS'BAGL'
p3199
(dp3200
S'BAGR'
p3201
I2
sS'RIAR'
p3202
I5
sS'RIGL'
p3203
I1
sS'AVEL'
p3204
I1
sS'RIR'
p3205
I1
sS'RIBR'
p3206
I7
sS'AVAR'
p3207
I1
sS'RIGR'
p3208
I1
sS'RIBL'
p3209
I1
sS'AVER'
p3210
I4
sS'AIBL'
p3211
I1
ssS'URADR'
p3212
(dp3213
S'RMER'
p3214
I1
sS'RMDVR'
p3215
I1
sS'URYDR'
p3216
I1
sS'RIPR'
p3217
I3
sS'MDR02'
p3218
I2
sS'MDR03'
p3219
I3
sS'MDR01'
p3220
I3
sS'RMED'
p3221
I1
sS'IL1DR'
p3222
I1
ssS'AIBR'
p3223
(dp3224
S'RIMR'
p3225
I1
sS'AVBR'
p3226
I3
sS'RIGL'
p3227
I3
sS'PVT'
p3228
I1
sS'AVEL'
p3229
I1
sS'RIVR'
p3230
I1
sS'AVAR'
p3231
I1
sS'RIS'
p3232
I1
sS'DVC'
p3233
I2
sS'SMDDL'
p3234
I3
sS'RIML'
p3235
I1
sS'VB1'
p3236
I3
sS'SMDVL'
p3237
I1
sS'SAADL'
p3238
I1
sS'RIBL'
p3239
I4
sS'AFDR'
p3240
I1
sS'DB1'
p3241
I1
sS'RIAL'
p3242
I1
ssS'PVCR'
p3243
(dp3244
S'PDEL'
p3245
I2
sS'PHCR'
p3246
I1
sS'DB3'
p3247
I3
sS'DB2'
p3248
I1
sS'DB5'
p3249
I1
sS'DB4'
p3250
I4
sS'DB7'
p3251
I1
sS'DB6'
p3252
I2
sS'PVCL'
p3253
I8
sS'AVEL'
p3254
I1
sS'AQR'
p3255
I1
sS'AVAR'
p3256
I10
sS'VA8'
p3257
I2
sS'AVAL'
p3258
I12
sS'VA9'
p3259
I1
sS'AVER'
p3260
I1
sS'RID'
p3261
I5
sS'AS2'
p3262
I1
sS'VB4'
p3263
I3
sS'VB10'
p3264
I1
sS'PVR'
p3265
I1
sS'FLPL'
p3266
I1
sS'AVJL'
p3267
I3
sS'PVWR'
p3268
I2
sS'DA9'
p3269
I1
sS'LUAR'
p3270
I1
sS'AVBR'
p3271
I6
sS'AVDR'
p3272
I1
sS'PVDL'
p3273
I1
sS'PVWL'
p3274
I2
sS'AVL'
p3275
I1
sS'VB7'
p3276
I3
sS'VB6'
p3277
I2
sS'SIBVR'
p3278
I2
sS'AVDL'
p3279
I5
sS'VB8'
p3280
I1
sS'PLMR'
p3281
I1
sS'AVBL'
p3282
I8
ssS'AVKR'
p3283
(dp3284
S'PVQL'
p3285
I1
sS'SMBDR'
p3286
I2
sS'SMDDR'
p3287
I2
sS'RIMR'
p3288
I2
sS'MVL10'
p3289
I1
sS'RMDR'
p3290
I1
sS'AQR'
p3291
I1
sS'RMFL'
p3292
I1
sS'PVPL'
p3293
I6
sS'RIGR'
p3294
I1
sS'BDUL'
p3295
I1
sS'RICL'
p3296
I1
sS'SMBDL'
p3297
I2
sS'AVKL'
p3298
I2
sS'SMBVR'
p3299
I1
sS'ADEL'
p3300
I1
sS'SAADL'
p3301
I1
sS'RIML'
p3302
I2
sS'SMDDL'
p3303
I1
ssS'OLQVR'
p3304
(dp3305
S'SIBDR'
p3306
I4
sS'RMDDR'
p3307
I1
sS'CEPVR'
p3308
I1
sS'RMER'
p3309
I1
sS'RIBR'
p3310
I1
sS'RICR'
p3311
I1
sS'RIPR'
p3312
I2
sS'RMDVL'
p3313
I4
sS'RIH'
p3314
I2
sS'IL1VR'
p3315
I1
sS'RIGR'
p3316
I1
sS'URBR'
p3317
I1
ssS'RMDVR'
p3318
(dp3319
S'SIBDR'
p3320
I1
sS'RMDR'
p3321
I1
sS'SMDVR'
p3322
I1
sS'RMDVL'
p3323
I1
sS'OLQDR'
p3324
I1
sS'AVEL'
p3325
I1
sS'MDL01'
p3326
I1
sS'MVL02'
p3327
I1
sS'MVL03'
p3328
I1
sS'MVL01'
p3329
I1
sS'MVL06'
p3330
I1
sS'MVL04'
p3331
I1
sS'MVL05'
p3332
I1
sS'AVER'
p3333
I1
sS'MVL08'
p3334
I1
sS'RMDDR'
p3335
I1
sS'SAAVR'
p3336
I1
sS'RMDDL'
p3337
I4
sS'MVR08'
p3338
I1
sS'MVR04'
p3339
I1
sS'MVR06'
p3340
I1
sS'SIBVR'
p3341
I1
ssS'M3R'
p3342
(dp3343
S'MCL'
p3344
I1
sS'NSMR'
p3345
I3
sS'MI'
p3346
I2
sS'I3'
p3347
I2
sS'I5'
p3348
I3
sS'I4'
p3349
I6
sS'I6'
p3350
I1
sS'I1L'
p3351
I4
sS'M3L'
p3352
I1
sS'M1'
p3353
I2
sS'NSML'
p3354
I2
sS'I1R'
p3355
I4
sS'MCR'
p3356
I1
ssS'RIPR'
p3357
(dp3358
S'OLQDR'
p3359
I1
sS'RMED'
p3360
I1
sS'OLQDL'
p3361
I1
ssS'RMDVL'
p3362
(dp3363
S'MVR08'
p3364
I1
sS'RMDDR'
p3365
I6
sS'MVR04'
p3366
I1
sS'MVR05'
p3367
I1
sS'MVR06'
p3368
I1
sS'RMDL'
p3369
I1
sS'RMDVR'
p3370
I1
sS'MVR01'
p3371
I1
sS'MVR02'
p3372
I1
sS'MVR03'
p3373
I1
sS'RMDDL'
p3374
I1
sS'SMDVL'
p3375
I1
sS'SAAVL'
p3376
I1
sS'MVL04'
p3377
I1
sS'MDR01'
p3378
I1
sS'AVER'
p3379
I1
sS'OLQDL'
p3380
I1
ssS'AVKL'
p3381
(dp3382
S'PDEL'
p3383
I3
sS'AVKR'
p3384
I2
sS'DVA'
p3385
I1
sS'SMBDR'
p3386
I1
sS'SMBDL'
p3387
I1
sS'PDER'
p3388
I1
sS'PVT'
p3389
I2
sS'ADER'
p3390
I1
sS'AQR'
p3391
I2
sS'VB1'
p3392
I4
sS'PVPL'
p3393
I1
sS'PVPR'
p3394
I1
sS'RMFR'
p3395
I1
sS'AVER'
p3396
I1
sS'PVM'
p3397
I1
sS'RIMR'
p3398
I1
sS'SMDDR'
p3399
I1
sS'RIML'
p3400
I2
sS'AVEL'
p3401
I2
sS'RIGL'
p3402
I1
sS'SAADR'
p3403
I1
sS'VB10'
p3404
I1
sS'RICR'
p3405
I1
sS'AVM'
p3406
I1
sS'RICL'
p3407
I1
sS'SMBVR'
p3408
I1
sS'SIAVR'
p3409
I1
sS'AVBL'
p3410
I1
ssS'PHAR'
p3411
(dp3412
S'PVQL'
p3413
I2
sS'AVHR'
p3414
I1
sS'PHBR'
p3415
I5
sS'DVA'
p3416
I1
sS'PVPL'
p3417
I3
sS'PHAL'
p3418
I2
sS'PHBL'
p3419
I1
sS'AVG'
p3420
I3
sS'DA8'
p3421
I1
ssS'PVCL'
p3422
(dp3423
S'PVCR'
p3424
I7
sS'DVA'
p3425
I5
sS'DB3'
p3426
I4
sS'DB2'
p3427
I3
sS'DB5'
p3428
I2
sS'DB4'
p3429
I3
sS'DB7'
p3430
I3
sS'DB6'
p3431
I2
sS'AVEL'
p3432
I3
sS'VB10'
p3433
I3
sS'AVAR'
p3434
I4
sS'RIS'
p3435
I2
sS'AVAL'
p3436
I3
sS'AVER'
p3437
I1
sS'RID'
p3438
I5
sS'AS1'
p3439
I1
sS'AVJR'
p3440
I2
sS'DA5'
p3441
I1
sS'DA6'
p3442
I1
sS'DA2'
p3443
I1
sS'AVJL'
p3444
I4
sS'AVBR'
p3445
I12
sS'PLML'
p3446
I1
sS'VB11'
p3447
I1
sS'AVDR'
p3448
I2
sS'SIBVL'
p3449
I2
sS'VB3'
p3450
I1
sS'VB6'
p3451
I2
sS'VB5'
p3452
I1
sS'VB4'
p3453
I1
sS'AVDL'
p3454
I5
sS'VB9'
p3455
I2
sS'VB8'
p3456
I1
sS'AVBL'
p3457
I5
ssS'AIBL'
p3458
(dp3459
S'PVT'
p3460
I1
sS'RIMR'
p3461
I1
sS'AFDL'
p3462
I1
sS'SAADR'
p3463
I2
sS'RIBR'
p3464
I4
sS'DVC'
p3465
I1
sS'RIML'
p3466
I2
sS'AVAL'
p3467
I2
sS'SMDDR'
p3468
I4
sS'SAADL'
p3469
I2
sS'FLPL'
p3470
I1
sS'ASER'
p3471
I1
sS'RIGR'
p3472
I3
sS'RIFL'
p3473
I1
sS'RIVL'
p3474
I1
sS'AIYL'
p3475
I1
sS'AVBL'
p3476
I5
ssS'URAVL'
p3477
(dp3478
S'RMER'
p3479
I1
sS'RMEV'
p3480
I2
sS'RIPL'
p3481
I3
sS'MVL02'
p3482
I2
sS'MVL03'
p3483
I3
sS'MVL01'
p3484
I2
sS'RMEL'
p3485
I1
sS'MVL04'
p3486
I2
ssS'AWAR'
p3487
(dp3488
S'AIYR'
p3489
I2
sS'AIAR'
p3490
I1
sS'RIFR'
p3491
I2
sS'ASER'
p3492
I2
sS'ASEL'
p3493
I1
sS'AWBR'
p3494
I1
sS'ADFR'
p3495
I3
sS'RIR'
p3496
I2
sS'AFDR'
p3497
I7
sS'RIGR'
p3498
I1
sS'AIZR'
p3499
I1
sS'AWAL'
p3500
I1
sS'AUAR'
p3501
I1
ssS'ASIL'
p3502
(dp3503
S'AIZL'
p3504
I1
sS'ASER'
p3505
I1
sS'AWCR'
p3506
I1
sS'RIBL'
p3507
I1
sS'AIYL'
p3508
I2
sS'AIAL'
p3509
I2
sS'ASKL'
p3510
I2
sS'AIBL'
p3511
I1
sS'ASIR'
p3512
I1
sS'AWCL'
p3513
I1
ssS'ADER'
p3514
(dp3515
S'PVR'
p3516
I1
sS'RIH'
p3517
I1
sS'RIGL'
p3518
I7
sS'AVDR'
p3519
I2
sS'FLPR'
p3520
I1
sS'AVJR'
p3521
I1
sS'ADAR'
p3522
I1
sS'AVAR'
p3523
I1
sS'ALA'
p3524
I1
sS'SAAVR'
p3525
I1
sS'AVER'
p3526
I1
sS'AVAL'
p3527
I5
sS'AVKL'
p3528
I2
sS'FLPL'
p3529
I1
sS'RMDR'
p3530
I2
sS'ADEL'
p3531
I2
sS'OLLR'
p3532
I2
sS'AVKR'
p3533
I1
sS'RIGR'
p3534
I4
sS'CEPDR'
p3535
I1
ssS'AQR'
p3536
(dp3537
S'BAGR'
p3538
I2
sS'AVBR'
p3539
I4
sS'RIAR'
p3540
I1
sS'PVCR'
p3541
I2
sS'RIGL'
p3542
I2
sS'AVDR'
p3543
I1
sS'AVKR'
p3544
I1
sS'AVAR'
p3545
I3
sS'PVPL'
p3546
I7
sS'PVPR'
p3547
I9
sS'AVAL'
p3548
I1
sS'AVKL'
p3549
I2
sS'URXL'
p3550
I1
sS'AVJL'
p3551
I1
sS'RIGR'
p3552
I1
sS'AVDL'
p3553
I1
sS'RIAL'
p3554
I3
sS'BAGL'
p3555
I2
sS'AVBL'
p3556
I1
ssS'VA10'
p3557
(dp3558
S'MVR17'
p3559
I5
sS'MVR18'
p3560
I5
sS'AVAR'
p3561
I1
sS'AVAL'
p3562
I1
sS'MVL17'
p3563
I5
sS'MVL18'
p3564
I5
ssS'I3'
p3565
(dp3566
S'M2L'
p3567
I2
sS'M1'
p3568
I4
sS'M2R'
p3569
I2
ssS'URBL'
p3570
(dp3571
S'CEPDL'
p3572
I1
sS'SIAVL'
p3573
I1
sS'RMDDR'
p3574
I1
sS'OLQVL'
p3575
I1
sS'RICR'
p3576
I1
sS'SMBDR'
p3577
I1
sS'IL1L'
p3578
I1
sS'URXL'
p3579
I2
sS'AVBL'
p3580
I1
sS'OLQDL'
p3581
I1
ssS'I5'
p3582
(dp3583
S'M5'
p3584
I2
sS'I1L'
p3585
I4
sS'M1'
p3586
I2
sS'MI'
p3587
I4
sS'I1R'
p3588
I3
ssS'I4'
p3589
(dp3590
S'I5'
p3591
I2
sS'I2R'
p3592
I5
sS'I2L'
p3593
I5
sS'M1'
p3594
I4
ssS'PVPL'
p3595
(dp3596
S'AVBR'
p3597
I6
sS'VD3'
p3598
I1
sS'PVCR'
p3599
I3
sS'PQR'
p3600
I4
sS'RIGL'
p3601
I2
sS'AQR'
p3602
I8
sS'AVKR'
p3603
I6
sS'AVDR'
p3604
I2
sS'AVAR'
p3605
I1
sS'PHAR'
p3606
I3
sS'DVC'
p3607
I2
sS'PVPR'
p3608
I1
sS'AVAL'
p3609
I2
sS'AVHR'
p3610
I1
sS'ADAL'
p3611
I1
sS'PVT'
p3612
I1
sS'AVER'
p3613
I1
sS'AVKL'
p3614
I1
sS'VD13'
p3615
I2
sS'AVBL'
p3616
I5
ssS'I6'
p3617
(dp3618
S'NSMR'
p3619
I2
sS'I2R'
p3620
I2
sS'M5'
p3621
I2
sS'M4'
p3622
I1
sS'I2L'
p3623
I2
sS'NSML'
p3624
I2
sS'I3'
p3625
I1
ssS'PVPR'
p3626
(dp3627
S'PVCR'
p3628
I7
sS'DVC'
p3629
I14
sS'AVKL'
p3630
I1
sS'PVCL'
p3631
I4
sS'AQR'
p3632
I11
sS'DD2'
p3633
I1
sS'AVAR'
p3634
I2
sS'PVPL'
p3635
I1
sS'AVAL'
p3636
I1
sS'RIMR'
p3637
I1
sS'AVBR'
p3638
I5
sS'RIAR'
p3639
I2
sS'VD5'
p3640
I1
sS'VD4'
p3641
I1
sS'AVHL'
p3642
I3
sS'ADFR'
p3643
I1
sS'AVL'
p3644
I4
sS'RMGR'
p3645
I1
sS'RIGR'
p3646
I1
sS'AVBL'
p3647
I4
sS'ASHR'
p3648
I1
sS'PVQR'
p3649
I1
ssS'SABVL'
p3650
(dp3651
S'AVAR'
p3652
I3
sS'DA1'
p3653
I2
sS'DA2'
p3654
I1
ssS'SIADR'
p3655
(dp3656
S'RIBR'
p3657
I1
ssS'M3L'
p3658
(dp3659
S'M3R'
p3660
I1
sS'NSMR'
p3661
I3
sS'MI'
p3662
I2
sS'I5'
p3663
I3
sS'I4'
p3664
I2
sS'I6'
p3665
I1
sS'I1L'
p3666
I4
sS'MCL'
p3667
I1
sS'M1'
p3668
I2
sS'NSML'
p3669
I2
sS'I1R'
p3670
I4
sS'MCR'
p3671
I1
ssS'VC4'
p3672
(dp3673
S'MVULVA'
p3674
I7
sS'AVHR'
p3675
I1
sS'VC1'
p3676
I1
sS'VC3'
p3677
I5
sS'VC5'
p3678
I2
sS'AVFR'
p3679
I1
sS'AVBL'
p3680
I1
ssS'VC5'
p3681
(dp3682
S'MVULVA'
p3683
I2
sS'HSNL'
p3684
I1
sS'URBL'
p3685
I3
sS'DVC'
p3686
I2
sS'VC3'
p3687
I3
sS'AVFL'
p3688
I1
sS'VC4'
p3689
I2
sS'OLLR'
p3690
I1
sS'AVFR'
p3691
I1
sS'PVT'
p3692
I1
ssS'VC6'
p3693
(dp3694
S'MVULVA'
p3695
I1
ssS'PHCL'
p3696
(dp3697
S'PLML'
p3698
I1
sS'DVA'
p3699
I6
sS'AVAL'
p3700
I1
sS'VA12'
p3701
I3
sS'PHCR'
p3702
I1
sS'PVCL'
p3703
I2
sS'DA9'
p3704
I1
sS'LUAL'
p3705
I1
ssS'ADEL'
p3706
(dp3707
S'SIBDR'
p3708
I1
sS'OLLL'
p3709
I1
sS'RIVL'
p3710
I1
sS'AVKR'
p3711
I1
sS'RMDL'
p3712
I2
sS'SMBDR'
p3713
I1
sS'IL1L'
p3714
I1
sS'RIVR'
p3715
I1
sS'RMHL'
p3716
I1
sS'ADER'
p3717
I1
sS'AVAR'
p3718
I3
sS'MDL05'
p3719
I1
sS'AVAL'
p3720
I2
sS'ADAL'
p3721
I1
sS'RIH'
p3722
I2
sS'RIFL'
p3723
I1
sS'CEPDL'
p3724
I1
sS'URBL'
p3725
I1
sS'AINL'
p3726
I1
sS'SIADR'
p3727
I1
sS'FLPL'
p3728
I1
sS'AVEL'
p3729
I1
sS'RIGL'
p3730
I5
sS'RMGL'
p3731
I1
sS'IL2L'
p3732
I1
sS'AVL'
p3733
I1
sS'BDUL'
p3734
I1
sS'RIGR'
p3735
I3
sS'RIAL'
p3736
I1
ssS'RMGR'
p3737
(dp3738
S'AVBR'
p3739
I1
sS'MVR07'
p3740
I1
sS'RMDR'
p3741
I2
sS'ASKR'
p3742
I1
sS'AWBR'
p3743
I1
sS'ADAR'
p3744
I1
sS'MDR05'
p3745
I1
sS'AVAR'
p3746
I1
sS'AIMR'
p3747
I1
sS'RIR'
p3748
I1
sS'IL2R'
p3749
I1
sS'URXR'
p3750
I2
sS'MVR05'
p3751
I1
sS'AVJL'
p3752
I1
sS'AVER'
p3753
I3
sS'AVDL'
p3754
I1
sS'RMDVR'
p3755
I5
sS'RMDL'
p3756
I4
sS'RMHR'
p3757
I1
sS'ASHR'
p3758
I2
sS'ALNR'
p3759
I1
ssS'RIVL'
p3760
(dp3761
S'RIAR'
p3762
I1
sS'MVR08'
p3763
I-3
sS'MVR05'
p3764
I-2
sS'MVR06'
p3765
I-2
sS'RMDL'
p3766
I2
sS'RIAL'
p3767
I1
sS'SMDDR'
p3768
I1
sS'SMDVL'
p3769
I1
sS'RIVR'
p3770
I2
sS'SIAVR'
p3771
I2
sS'SDQR'
p3772
I2
sS'AIBL'
p3773
I1
sS'SAADR'
p3774
I3
ssS'PDER'
p3775
(dp3776
S'PDEL'
p3777
I3
sS'PVCR'
p3778
I1
sS'VD9'
p3779
I1
sS'DVA'
p3780
I35
sS'VA8'
p3781
I1
sS'AVKL'
p3782
I16
sS'PVCL'
p3783
I1
sS'PVM'
p3784
I1
ssS'ASIR'
p3785
(dp3786
S'AWCR'
p3787
I1
sS'AIBR'
p3788
I1
sS'ASIL'
p3789
I1
sS'AIAR'
p3790
I2
sS'AIAL'
p3791
I1
sS'ASEL'
p3792
I2
sS'ASHR'
p3793
I1
sS'AWCL'
p3794
I1
ssS'AWAL'
p3795
(dp3796
S'AWAR'
p3797
I1
sS'AIZL'
p3798
I10
sS'AFDL'
p3799
I5
sS'ASGL'
p3800
I1
sS'AWBL'
p3801
I1
sS'ADAL'
p3802
I1
sS'AIAL'
p3803
I1
sS'ASEL'
p3804
I4
sS'AIYL'
p3805
I1
ssS'AIZL'
p3806
(dp3807
S'ASHL'
p3808
I1
sS'AIBR'
p3809
I8
sS'RIGL'
p3810
I1
sS'VB2'
p3811
I1
sS'RIAL'
p3812
I8
sS'DVA'
p3813
I1
sS'ASGL'
p3814
I1
sS'SMBVL'
p3815
I7
sS'RIML'
p3816
I4
sS'SMBDL'
p3817
I9
sS'AIAL'
p3818
I3
sS'ASEL'
p3819
I1
sS'AVER'
p3820
I5
sS'AIZR'
p3821
I2
sS'AIBL'
p3822
I2
ssS'SIAVR'
p3823
(dp3824
S'RIBR'
p3825
I1
ssS'VB6'
p3826
(dp3827
S'AVBR'
p3828
I2
sS'MVULVA'
p3829
I6
sS'MVR16'
p3830
I6
sS'MVR15'
p3831
I6
sS'VD6'
p3832
I1
sS'DD4'
p3833
I30
sS'DA4'
p3834
I1
sS'VD7'
p3835
I8
sS'VA8'
p3836
I1
sS'MVL15'
p3837
I6
sS'VB5'
p3838
I1
sS'MVL16'
p3839
I6
sS'VB7'
p3840
I1
sS'AVBL'
p3841
I1
ssS'IL1VR'
p3842
(dp3843
S'RMDDR'
p3844
I10
sS'IL1R'
p3845
I2
sS'MVR01'
p3846
I5
sS'MVR02'
p3847
I5
sS'RIPR'
p3848
I6
sS'IL2R'
p3849
I1
sS'IL2VR'
p3850
I1
sS'IL1VL'
p3851
I1
sS'RMER'
p3852
I1
ssS'ADFL'
p3853
(dp3854
S'AUAL'
p3855
I5
sS'AIZL'
p3856
I12
sS'RIGL'
p3857
I1
sS'OLQVL'
p3858
I1
sS'RIR'
p3859
I2
sS'SMBVL'
p3860
I2
sS'ADAL'
p3861
I2
sS'RIAL'
p3862
I15
ssS'RIBL'
p3863
(dp3864
S'AIBR'
p3865
I2
sS'OLQVL'
p3866
I1
sS'SMDVR'
p3867
I4
sS'SMBDL'
p3868
I1
sS'SIBDL'
p3869
I1
sS'PVT'
p3870
I1
sS'AVEL'
p3871
I1
sS'RIBR'
p3872
I3
sS'SIADL'
p3873
I1
sS'AVAL'
p3874
I1
sS'RIBL'
p3875
I1
sS'AVER'
p3876
I5
sS'OLQDL'
p3877
I2
sS'AUAL'
p3878
I1
sS'BAGR'
p3879
I1
sS'AVBR'
p3880
I2
sS'SIAVL'
p3881
I1
sS'RIGL'
p3882
I1
sS'AVDR'
p3883
I1
sS'SIBVL'
p3884
I1
sS'SMDDL'
p3885
I1
sS'SIBVR'
p3886
I1
sS'RIAL'
p3887
I3
sS'AVBL'
p3888
I1
ssS'DA4'
p3889
(dp3890
S'VD5'
p3891
I15
sS'VD4'
p3892
I12
sS'VB6'
p3893
I1
sS'DD2'
p3894
I1
sS'MDL14'
p3895
I5
sS'AVAR'
p3896
I2
sS'MDL12'
p3897
I4
sS'MDL11'
p3898
I4
sS'MDR14'
p3899
I5
sS'AVAL'
p3900
I3
sS'MDR11'
p3901
I4
sS'DA1'
p3902
I1
sS'DA3'
p3903
I1
sS'DB3'
p3904
I2
sS'MDR12'
p3905
I4
ssS'DA5'
p3906
(dp3907
S'VD5'
p3908
I1
sS'AS6'
p3909
I2
sS'VD6'
p3910
I16
sS'AVAR'
p3911
I5
sS'MDL14'
p3912
I4
sS'MDL13'
p3913
I5
sS'MDR14'
p3914
I4
sS'AVAL'
p3915
I1
sS'MDR13'
p3916
I5
sS'DB4'
p3917
I1
sS'VA4'
p3918
I1
sS'VA5'
p3919
I2
ssS'DA6'
p3920
(dp3921
S'VD5'
p3922
I3
sS'VD4'
p3923
I4
sS'VD6'
p3924
I3
sS'AVAR'
p3925
I2
sS'MDL14'
p3926
I4
sS'MDL13'
p3927
I4
sS'MDL12'
p3928
I4
sS'MDL11'
p3929
I6
sS'MDR14'
p3930
I4
sS'AVAL'
p3931
I10
sS'MDR16'
p3932
I4
sS'MDR11'
p3933
I4
sS'MDR13'
p3934
I4
sS'MDL16'
p3935
I4
sS'MDR12'
p3936
I4
ssS'DA7'
p3937
(dp3938
S'MDL18'
p3939
I4
sS'MDL17'
p3940
I4
sS'MDL15'
p3941
I4
sS'MDR17'
p3942
I4
sS'MDR15'
p3943
I4
sS'AVAL'
p3944
I2
sS'MDR18'
p3945
I4
ssS'DA1'
p3946
(dp3947
S'MDL08'
p3948
I8
sS'VD1'
p3949
I17
sS'VD2'
p3950
I1
sS'DD1'
p3951
I4
sS'AVAR'
p3952
I6
sS'SABVR'
p3953
I3
sS'DA4'
p3954
I1
sS'SABVL'
p3955
I2
sS'AVAL'
p3956
I2
sS'MDR08'
p3957
I8
ssS'DA2'
p3958
(dp3959
S'AS3'
p3960
I1
sS'AS2'
p3961
I2
sS'VD3'
p3962
I5
sS'VA1'
p3963
I2
sS'MDL09'
p3964
I2
sS'DD1'
p3965
I1
sS'AVAR'
p3966
I2
sS'SABVL'
p3967
I1
sS'MDL07'
p3968
I2
sS'MDR07'
p3969
I2
sS'AVAL'
p3970
I2
sS'MDL08'
p3971
I1
sS'MDR10'
p3972
I2
sS'VD2'
p3973
I11
sS'MDL10'
p3974
I2
sS'VD1'
p3975
I2
sS'MDR08'
p3976
I2
sS'MDR09'
p3977
I2
ssS'DA3'
p3978
(dp3979
S'MDL09'
p3980
I5
sS'VD3'
p3981
I25
sS'VD4'
p3982
I6
sS'AS4'
p3983
I2
sS'DD2'
p3984
I1
sS'AVAR'
p3985
I2
sS'MDL12'
p3986
I5
sS'MDL10'
p3987
I5
sS'DA4'
p3988
I2
sS'MDR10'
p3989
I5
sS'MDR12'
p3990
I5
sS'DB3'
p3991
I1
sS'MDR09'
p3992
I5
ssS'AIZR'
p3993
(dp3994
S'AWAR'
p3995
I1
sS'AIBR'
p3996
I1
sS'AIZL'
p3997
I2
sS'RIMR'
p3998
I4
sS'AVEL'
p3999
I4
sS'AIAR'
p4000
I1
sS'DVA'
p4001
I1
sS'RIAR'
p4002
I7
sS'SMBDR'
p4003
I5
sS'ASGR'
p4004
I1
sS'SMDDR'
p4005
I1
sS'SMBVR'
p4006
I3
sS'AVER'
p4007
I1
sS'AIBL'
p4008
I8
sS'ASHR'
p4009
I1
ssS'DA8'
p4010
(dp4011
S'MDL20'
p4012
I4
sS'MDL19'
p4013
I4
sS'MDL17'
p4014
I4
sS'MDR20'
p4015
I4
sS'AVAR'
p4016
I1
sS'MDR17'
p4017
I4
sS'MDR19'
p4018
I4
sS'DA9'
p4019
I1
ssS'DA9'
p4020
(dp4021
S'MDL22'
p4022
I4
sS'MDL23'
p4023
I4
sS'MDL21'
p4024
I4
sS'VD13'
p4025
I1
sS'MDL24'
p4026
I4
sS'MDL19'
p4027
I4
sS'MDR19'
p4028
I4
sS'DD6'
p4029
I1
sS'PDA'
p4030
I1
sS'PHCL'
p4031
I1
sS'MDR24'
p4032
I4
sS'RID'
p4033
I1
sS'DA8'
p4034
I1
sS'MDR21'
p4035
I4
sS'MDR22'
p4036
I4
sS'MDR23'
p4037
I4
ssS'ASHL'
p4038
(dp4039
S'AIZL'
p4040
I1
sS'AVDR'
p4041
I2
sS'RIAL'
p4042
I4
sS'RMGL'
p4043
I1
sS'RICL'
p4044
I2
sS'RIPL'
p4045
I1
sS'ADFL'
p4046
I3
sS'AVAL'
p4047
I2
sS'ADAL'
p4048
I2
sS'AIAL'
p4049
I7
sS'AVDL'
p4050
I2
sS'RIML'
p4051
I1
sS'ASKL'
p4052
I1
sS'AIBL'
p4053
I5
sS'ASHR'
p4054
I1
sS'AVBL'
p4055
I6
ssS'SAAVR'
p4056
(dp4057
S'RIMR'
p4058
I2
sS'AVAR'
p4059
I13
sS'RMDVR'
p4060
I1
sS'SMBVL'
p4061
I2
sS'SMDDL'
p4062
I6
sS'RIML'
p4063
I5
ssS'RIAR'
p4064
(dp4065
S'SMDVR'
p4066
I7
sS'RMDR'
p4067
I8
sS'SIAVL'
p4068
I1
sS'RMDDR'
p4069
I11
sS'CEPVR'
p4070
I1
sS'IL1R'
p4071
I1
sS'RMDL'
p4072
I3
sS'RMDVR'
p4073
I10
sS'SIADR'
p4074
I1
sS'SMDDL'
p4075
I7
sS'RMDVL'
p4076
I12
sS'SMDDR'
p4077
I7
sS'SMDVL'
p4078
I13
sS'RIVL'
p4079
I1
sS'RMDDL'
p4080
I10
sS'RIAL'
p4081
I4
sS'SAADR'
p4082
I1
sS'SIADL'
p4083
I1
ssS'MCL'
p4084
(dp4085
S'I2R'
p4086
I1
sS'M2R'
p4087
I2
sS'I1R'
p4088
I3
sS'M2L'
p4089
I2
sS'I1L'
p4090
I3
sS'M1'
p4091
I2
sS'I2L'
p4092
I1
sS'I3'
p4093
I1
ssS'VB11'
p4094
(dp4095
S'AVBR'
p4096
I1
sS'MVR24'
p4097
I5
sS'MVR22'
p4098
I5
sS'MVR23'
p4099
I5
sS'MVR21'
p4100
I5
sS'DD6'
p4101
I7
sS'PVCR'
p4102
I1
sS'MVL21'
p4103
I5
sS'MVL22'
p4104
I5
sS'MVL23'
p4105
I5
sS'VA12'
p4106
I2
sS'AVBL'
p4107
I2
ssS'SIAVL'
p4108
(dp4109
S'RIBL'
p4110
I1
ssS'AVDR'
p4111
(dp4112
S'ADLL'
p4113
I1
sS'AVJL'
p4114
I2
sS'DVC'
p4115
I1
sS'DB4'
p4116
I1
sS'VA11'
p4117
I1
sS'AVAR'
p4118
I15
sS'SABVR'
p4119
I1
sS'SABVL'
p4120
I3
sS'AVAL'
p4121
I16
sS'ADAL'
p4122
I2
sS'AS10'
p4123
I1
sS'VA2'
p4124
I1
sS'VA3'
p4125
I2
sS'VA6'
p4126
I1
sS'SABD'
p4127
I1
sS'AS5'
p4128
I1
sS'FLPR'
p4129
I1
sS'DA4'
p4130
I1
sS'DA5'
p4131
I2
sS'DA1'
p4132
I2
sS'DA2'
p4133
I1
sS'DA3'
p4134
I1
sS'DA8'
p4135
I1
sS'DA9'
p4136
I1
sS'PQR'
p4137
I1
sS'AVDL'
p4138
I2
sS'LUAL'
p4139
I2
sS'AVBL'
p4140
I1
ssS'PHBR'
p4141
(dp4142
S'AVFL'
p4143
I1
sS'PVCR'
p4144
I3
sS'AVDR'
p4145
I1
sS'AVAR'
p4146
I7
sS'AVHL'
p4147
I1
sS'AVAL'
p4148
I7
sS'PHBL'
p4149
I3
sS'AVDL'
p4150
I1
sS'PVCL'
p4151
I6
sS'DA8'
p4152
I1
sS'VA12'
p4153
I2
ssS'VB10'
p4154
(dp4155
S'AVBR'
p4156
I1
sS'VD12'
p4157
I2
sS'PVT'
p4158
I1
sS'MVR20'
p4159
I5
sS'MVR19'
p4160
I5
sS'DD6'
p4161
I9
sS'MVL20'
p4162
I5
sS'AVKL'
p4163
I1
sS'MVL19'
p4164
I5
sS'PVCL'
p4165
I1
sS'VD11'
p4166
I1
sS'AVBL'
p4167
I2
ssS'MCR'
p4168
(dp4169
S'I3'
p4170
I1
sS'M2R'
p4171
I2
sS'I1R'
p4172
I3
sS'M2L'
p4173
I2
sS'I1L'
p4174
I3
sS'M1'
p4175
I2
ssS'LUAL'
p4176
(dp4177
S'PLML'
p4178
I1
sS'AVDR'
p4179
I2
sS'PVWL'
p4180
I1
sS'AVAR'
p4181
I6
sS'AVAL'
p4182
I6
sS'PVR'
p4183
I1
sS'PHBL'
p4184
I1
sS'AVJL'
p4185
I1
sS'AVDL'
p4186
I4
sS'PVNL'
p4187
I1
ssS'PHBL'
p4188
(dp4189
S'PHBR'
p4190
I3
sS'AVAR'
p4191
I6
sS'AVAL'
p4192
I9
sS'AVDL'
p4193
I1
sS'PVCL'
p4194
I13
sS'VA12'
p4195
I1
ssS'RMDL'
p4196
(dp4197
S'RIAR'
p4198
I3
sS'MVR07'
p4199
I1
sS'RMDR'
p4200
I3
sS'RMDDR'
p4201
I1
sS'MVR05'
p4202
I2
sS'RMER'
p4203
I1
sS'MDL03'
p4204
I1
sS'MDL05'
p4205
I2
sS'MVR01'
p4206
I1
sS'RMDDL'
p4207
I1
sS'RMDVL'
p4208
I1
sS'MVL01'
p4209
I1
sS'MDR03'
p4210
I1
sS'MDR01'
p4211
I1
sS'OLLR'
p4212
I2
sS'RMFL'
p4213
I1
sS'MVR03'
p4214
I1
sS'RIAL'
p4215
I4
ssS'AVDL'
p4216
(dp4217
S'FLPL'
p4218
I1
sS'PVCL'
p4219
I1
sS'ADAR'
p4220
I2
sS'AVAR'
p4221
I19
sS'SABVR'
p4222
I1
sS'SABVL'
p4223
I1
sS'AVAL'
p4224
I13
sS'AS11'
p4225
I2
sS'AS10'
p4226
I1
sS'SABD'
p4227
I1
sS'VA5'
p4228
I1
sS'AS1'
p4229
I1
sS'AS5'
p4230
I1
sS'AS4'
p4231
I1
sS'FLPR'
p4232
I1
sS'DA4'
p4233
I1
sS'DA5'
p4234
I1
sS'DA1'
p4235
I1
sS'DA2'
p4236
I1
sS'DA3'
p4237
I4
sS'DA8'
p4238
I1
sS'AVM'
p4239
I2
sS'LUAL'
p4240
I1
ssS'RIAL'
p4241
(dp4242
S'RIAR'
p4243
I1
sS'RMDR'
p4244
I6
sS'RMDDR'
p4245
I7
sS'RIVL'
p4246
I2
sS'CEPVL'
p4247
I1
sS'RMDVR'
p4248
I11
sS'SMDDL'
p4249
I8
sS'SMDVR'
p4250
I11
sS'RMDVL'
p4251
I9
sS'SMDDR'
p4252
I10
sS'SMDVL'
p4253
I6
sS'RIVR'
p4254
I4
sS'RMDDL'
p4255
I12
sS'RMDL'
p4256
I6
sS'SIADL'
p4257
I2
ssS'DD1'
p4258
(dp4259
S'MDL08'
p4260
I-6
sS'AVBR'
p4261
I1
sS'VD2'
p4262
I2
sS'MDL09'
p4263
I-7
sS'DD2'
p4264
I3
sS'MDL07'
p4265
I-6
sS'MDR07'
p4266
I-6
sS'MDR10'
p4267
I-6
sS'MDL10'
p4268
I-6
sS'VD1'
p4269
I4
sS'MDR08'
p4270
I-6
sS'MDR09'
p4271
I-7
ssS'ASHR'
p4272
(dp4273
S'ASHL'
p4274
I1
sS'AVBR'
p4275
I3
sS'AIBR'
p4276
I3
sS'AVDR'
p4277
I1
sS'ASKR'
p4278
I1
sS'RICR'
p4279
I2
sS'ADAR'
p4280
I3
sS'AIAR'
p4281
I10
sS'AVAR'
p4282
I5
sS'RIAR'
p4283
I2
sS'ADFR'
p4284
I2
sS'PVPR'
p4285
I1
sS'RMGR'
p4286
I1
sS'AVER'
p4287
I3
sS'AVDL'
p4288
I5
sS'AIZR'
p4289
I1
sS'HSNR'
p4290
I1
ss.